(lp0
(lp1
F0.392744
aF0.490205
aF0.126922
aF0.482319
aF0.530343
aF0.40871
aF0.0
aF0.780088
aF0.75575
aF0.602585
aF0.510623
aF0.908287
aF0.516719
aa(lp2
F0.111342
aF0.121068
aF0.450954
aF0.465945
aF0.548615
aF0.606701
aF0.0
aF0.6629
aF0.636315
aF0.801451
aF0.44149
aF0.305475
aF0.415547
aa(lp3
F0.115219
aF0.436483
aF0.567272
aF0.208824
aF0.576027
aF0.124666
aF0.0
aF0.47894
aF0.728125
aF0.592408
aF0.670993
aF0.759635
aF0.631501
aa(lp4
F0.07975
aF0.614976
aF0.570474
aF0.188047
aF0.500798
aF0.375285
aF0.0
aF0.297002
aF0.882563
aF0.603653
aF0.867525
aF0.938625
aF0.722291
aa(lp5
F0.131746
aF0.174539
aF0.160812
aF0.16778
aF0.528987
aF0.812472
aF0.0
aF0.005713
aF0.676487
aF0.90562
aF0.767507
aF0.443202
aF0.917065
aa(lp6
F0.44077
aF0.514866
aF0.514534
aF0.146145
aF0.479017
aF0.632099
aF0.0
aF0.712535
aF0.627189
aF0.716127
aF0.55832
aF0.513941
aF0.593238
aa(lp7
F0.152035
aF0.411898
aF0.10725
aF0.500933
aF0.531953
aF0.428103
aF0.0
aF0.540983
aF0.561337
aF0.020191
aF0.244245
aF0.915629
aF0.13527
aa(lp8
F0.28181
aF0.392382
aF0.239129
aF0.00062
aF0.279373
aF0.082815
aF0.0
aF0.243452
aF0.364738
aF0.890916
aF0.815542
aF0.73503
aF0.831946
aa(lp9
F0.125357
aF0.532669
aF0.203021
aF0.227593
aF0.517118
aF0.629776
aF0.0
aF0.438276
aF0.722468
aF0.429907
aF0.487404
aF0.484542
aF0.544707
aa(lp10
F0.092235
aF0.6822
aF0.237466
aF0.005077
aF0.092556
aF0.626827
aF0.546766
aF0.0
aF0.858738
aF0.719554
aF0.988541
aF0.917607
aF0.839968
aa(lp11
F0.108526
aF0.447341
aF0.513839
aF0.104034
aF0.611047
aF0.419128
aF0.0
aF0.220795
aF0.62637
aF0.938504
aF0.715346
aF0.89648
aF0.843881
aa(lp12
F0.141606
aF0.130161
aF0.209679
aF0.336636
aF0.463145
aF0.409428
aF0.0
aF0.0
aF0.987936
aF0.325441
aF0.314088
aF0.2743
aF0.448088
aa(lp13
F0.162261
aF0.475784
aF0.167991
aF0.181322
aF0.264395
aF0.56977
aF0.0
aF0.538012
aF0.700781
aF0.498013
aF0.617839
aF0.286299
aF0.836758
aa(lp14
F0.084907
aF0.154577
aF0.155987
aF0.548967
aF0.493155
aF0.294611
aF0.0
aF0.254813
aF0.498198
aF0.771539
aF0.951147
aF0.584373
aF0.851574
aa(lp15
F0.126537
aF0.193174
aF0.561734
aF0.178425
aF0.289649
aF0.550708
aF0.0
aF5e-06
aF0.666065
aF0.918414
aF0.871821
aF0.762384
aF0.773831
aa(lp16
F0.086749
aF0.409719
aF0.12242
aF0.298581
aF0.51976
aF0.666095
aF0.0
aF0.481506
aF0.893513
aF0.179272
aF0.929374
aF0.652147
aF0.271292
aa(lp17
F0.116693
aF0.426942
aF0.135224
aF0.060879
aF0.57753
aF0.237079
aF0.0
aF0.082411
aF0.398537
aF0.805861
aF0.350294
aF0.459005
aF0.72169
aa(lp18
F0.436797
aF0.094627
aF0.413414
aF0.531995
aF0.453294
aF0.752248
aF0.0
aF0.625277
aF0.336417
aF0.319692
aF0.071037
aF0.056765
aF0.737624
aa(lp19
F0.128274
aF0.173284
aF0.155193
aF0.444736
aF0.523936
aF0.686385
aF0.780431
aF0.0
aF0.487893
aF0.592145
aF0.73147
aF0.364693
aF0.88709
aa(lp20
F0.502717
aF0.440764
aF0.150458
aF0.480325
aF0.513941
aF0.53865
aF0.0
aF0.587164
aF0.811463
aF0.212462
aF0.684333
aF0.89193
aF0.641497
aa(lp21
F0.429203
aF0.458537
aF0.175267
aF0.12423
aF0.477925
aF0.571684
aF0.0
aF0.145355
aF0.840894
aF0.757818
aF0.945175
aF0.450817
aF0.822484
aa(lp22
F0.172118
aF0.40585
aF0.154203
aF0.051294
aF0.294497
aF0.825057
aF0.0
aF0.852741
aF0.600538
aF0.252273
aF0.695411
aF0.598737
aF0.823221
aa(lp23
F0.195939
aF0.458325
aF0.163266
aF0.150617
aF0.461582
aF0.527994
aF0.0
aF0.348673
aF0.277373
aF0.636672
aF0.474921
aF0.146714
aF0.689279
aa(lp24
F0.080073
aF0.428029
aF0.202594
aF0.275792
aF0.499237
aF0.611644
aF0.0
aF0.507942
aF0.862087
aF0.218262
aF0.313273
aF0.652304
aF0.21723
aa(lp25
F0.22934
aF0.255247
aF0.57643
aF0.008336
aF0.096254
aF0.581677
aF0.0
aF0.915164
aF0.561881
aF0.248679
aF0.46894
aF0.670716
aF0.776312
aa(lp26
F0.112184
aF0.53591
aF0.191496
aF0.021707
aF0.511245
aF0.246242
aF0.0
aF0.520885
aF0.412387
aF0.04015
aF0.618178
aF0.36436
aF0.263733
aa(lp27
F0.13247
aF0.164201
aF0.423891
aF0.002607
aF0.479453
aF0.332245
aF0.782375
aF0.0
aF0.130585
aF0.306303
aF0.000165
aF0.54506
aF0.420221
aa(lp28
F0.054728
aF0.140123
aF0.104901
aF0.55686
aF0.459037
aF0.266778
aF0.0
aF0.482939
aF0.948055
aF0.580652
aF0.893915
aF0.321214
aF0.499836
aa(lp29
F0.047283
aF0.089821
aF0.091043
aF0.254065
aF0.572584
aF0.0
aF0.0
aF0.0
aF0.042924
aF0.139464
aF0.45872
aF0.607656
aF0.206651
aa(lp30
F0.084238
aF0.437837
aF0.057613
aF0.093083
aF0.403794
aF0.467011
aF0.0
aF0.809624
aF0.745268
aF0.004585
aF0.835107
aF0.794855
aF0.139501
aa(lp31
F0.104176
aF0.06798
aF0.037366
aF0.408207
aF0.460257
aF0.0
aF0.0
aF0.0
aF0.275583
aF0.215325
aF0.593593
aF0.425479
aF0.348476
aa(lp32
F0.441393
aF0.03798
aF0.041425
aF0.147865
aF0.406637
aF0.0
aF0.0
aF0.0
aF0.001618
aF0.080098
aF0.188465
aF0.58418
aF0.650145
aa(lp33
F0.137102
aF0.456129
aF0.12429
aF0.113055
aF0.520568
aF0.78459
aF0.0
aF0.055855
aF0.636622
aF0.412927
aF0.472217
aF0.28604
aF0.619342
aa(lp34
F0.121899
aF0.128894
aF0.136136
aF0.497279
aF0.499914
aF0.728301
aF0.0
aF0.777558
aF0.925512
aF0.2718
aF0.18729
aF0.141951
aF0.287111
aa(lp35
F0.10347
aF0.613669
aF0.457396
aF0.158791
aF0.545184
aF0.554185
aF0.0
aF0.686159
aF0.83241
aF0.184796
aF0.349805
aF0.11805
aF0.387675
aa(lp36
F0.509513
aF0.069571
aF0.119668
aF0.463363
aF0.281071
aF0.576423
aF0.0
aF0.24841
aF0.005457
aF0.070318
aF0.077817
aF0.03511
aF0.884418
aa(lp37
F0.180302
aF0.319373
aF0.06579
aF0.336694
aF0.186179
aF0.0
aF0.0
aF0.0
aF0.240592
aF0.275276
aF0.547353
aF0.599818
aF0.228245
aa(lp38
F0.216295
aF0.313594
aF0.173632
aF0.076671
aF0.457264
aF0.566906
aF0.0
aF0.474242
aF0.937501
aF0.762886
aF0.957188
aF0.633161
aF0.80014
aa(lp39
F0.441393
aF0.03798
aF0.041425
aF0.147865
aF0.406637
aF0.0
aF0.0
aF0.0
aF0.001618
aF0.080098
aF0.188465
aF0.58418
aF0.650145
aa(lp40
F0.441393
aF0.03798
aF0.041425
aF0.147865
aF0.406637
aF0.0
aF0.0
aF0.0
aF0.001618
aF0.080098
aF0.188465
aF0.58418
aF0.650145
aa(lp41
F0.441393
aF0.03798
aF0.041425
aF0.147865
aF0.406637
aF0.0
aF0.0
aF0.0
aF0.001618
aF0.080098
aF0.188465
aF0.58418
aF0.650145
aa(lp42
F0.128664
aF0.023046
aF0.11498
aF0.59049
aF0.188419
aF0.0
aF0.0
aF0.0
aF0.0
aF0.0
aF0.0
aF0.0
aF0.0
aa(lp43
F0.100466
aF0.173975
aF0.480062
aF0.168924
aF0.522458
aF0.624514
aF0.0
aF0.436623
aF0.954917
aF0.281624
aF0.500479
aF0.299328
aF0.345107
aa(lp44
F0.105365
aF0.106875
aF0.114926
aF0.117218
aF0.627547
aF0.0
aF0.0
aF0.0
aF0.577717
aF0.342426
aF0.609878
aF0.621914
aF0.417545
aa(lp45
F0.104176
aF0.06798
aF0.037366
aF0.408207
aF0.460257
aF0.0
aF0.0
aF0.0
aF0.275583
aF0.215325
aF0.593593
aF0.425479
aF0.348476
aa(lp46
F0.049386
aF0.05069
aF0.364951
aF0.231737
aF0.368687
aF0.0
aF0.660207
aF0.0
aF0.792759
aF0.736817
aF0.263858
aF0.449168
aF0.842651
aa(lp47
F0.080073
aF0.428029
aF0.202594
aF0.275792
aF0.499237
aF0.611644
aF0.0
aF0.507942
aF0.862087
aF0.218262
aF0.313273
aF0.652304
aF0.21723
aa(lp48
F0.078861
aF0.063412
aF0.153199
aF0.399662
aF0.491657
aF0.0
aF0.0
aF0.0
aF0.0
aF0.0
aF0.0
aF0.0
aF0.0
aa(lp49
F0.069239
aF0.121399
aF0.110694
aF0.50049
aF0.530633
aF0.276197
aF0.0
aF0.621722
aF0.801
aF0.249082
aF0.808875
aF0.881416
aF0.62049
aa(lp50
F0.450426
aF0.426693
aF0.435723
aF0.114151
aF0.455632
aF0.684546
aF0.0
aF0.622157
aF0.5614
aF0.633018
aF0.658231
aF0.416295
aF0.632931
aa(lp51
F0.441393
aF0.03798
aF0.041425
aF0.147865
aF0.406637
aF0.0
aF0.0
aF0.0
aF0.001618
aF0.080098
aF0.188465
aF0.58418
aF0.650145
aa(lp52
F0.216979
aF0.095014
aF0.241858
aF0.334845
aF0.156246
aF0.0
aF0.0
aF0.0
aF0.051725
aF0.129747
aF0.443516
aF0.605411
aF0.171289
aa(lp53
F0.441393
aF0.03798
aF0.041425
aF0.147865
aF0.406637
aF0.0
aF0.0
aF0.0
aF0.001618
aF0.080098
aF0.188465
aF0.58418
aF0.650145
aa(lp54
F0.441393
aF0.03798
aF0.041425
aF0.147865
aF0.406637
aF0.0
aF0.0
aF0.0
aF0.001618
aF0.080098
aF0.188465
aF0.58418
aF0.650145
aa(lp55
F0.441393
aF0.03798
aF0.041425
aF0.147865
aF0.406637
aF0.0
aF0.0
aF0.0
aF0.001618
aF0.080098
aF0.188465
aF0.58418
aF0.650145
aa(lp56
F0.06691
aF0.055291
aF0.1841
aF0.310671
aF0.504609
aF0.0
aF0.0
aF0.0
aF0.119109
aF0.136642
aF0.529343
aF0.597799
aF0.067395
aa(lp57
F0.157388
aF0.028078
aF0.139083
aF0.572206
aF0.192394
aF0.0
aF0.0
aF0.0
aF0.739769
aF0.4391
aF0.811798
aF0.489425
aF0.260579
aa(lp58
F0.133696
aF0.483088
aF0.221841
aF0.090569
aF0.568633
aF0.688687
aF0.0
aF0.009717
aF0.837757
aF0.94382
aF0.815909
aF0.860407
aF0.88249
aa(lp59
F0.180302
aF0.319373
aF0.06579
aF0.336694
aF0.186179
aF0.0
aF0.0
aF0.0
aF0.240592
aF0.275276
aF0.547353
aF0.599818
aF0.228245
aa(lp60
F0.084736
aF0.156783
aF0.140215
aF0.173799
aF0.64169
aF0.047545
aF0.0
aF0.117
aF0.852819
aF0.646262
aF0.571252
aF0.726962
aF0.711384
aa(lp61
F0.504649
aF0.533331
aF0.168899
aF0.087638
aF0.504386
aF0.727718
aF0.0
aF0.772963
aF0.685865
aF0.338031
aF0.654083
aF0.479273
aF0.719823
aa(lp62
F0.12255
aF0.12994
aF0.162842
aF0.262539
aF0.532856
aF0.650759
aF0.0
aF0.511826
aF0.94724
aF0.416883
aF0.567818
aF0.378824
aF0.41259
aa(lp63
F0.206643
aF0.050924
aF0.043327
aF0.543372
aF0.216073
aF0.0
aF0.0
aF0.0
aF0.022841
aF0.140793
aF0.456053
aF0.609877
aF0.184329
aa(lp64
F0.132402
aF0.513414
aF0.206253
aF0.126096
aF0.477794
aF0.674793
aF0.0
aF0.68279
aF0.892152
aF0.975108
aF0.951608
aF0.747693
aF0.899911
aa(lp65
F0.458323
aF0.445428
aF0.140532
aF0.184424
aF0.413326
aF0.870859
aF0.0
aF0.374122
aF0.837205
aF0.845311
aF0.662609
aF0.890594
aF0.759398
aa(lp66
F0.094623
aF0.097739
aF0.138496
aF0.523409
aF0.517587
aF0.777014
aF0.0
aF0.156396
aF0.836377
aF0.539025
aF0.329636
aF0.092408
aF0.500258
aa(lp67
F0.142518
aF0.469897
aF0.533886
aF0.030768
aF0.553848
aF0.396714
aF0.0
aF0.379737
aF0.872563
aF0.74787
aF0.86757
aF0.736955
aF0.824322
aa(lp68
F0.090908
aF0.062853
aF0.11281
aF0.526932
aF0.252192
aF0.0
aF0.0
aF0.0
aF0.0
aF0.0
aF0.0
aF0.0
aF0.0
aa(lp69
F0.450426
aF0.426693
aF0.435723
aF0.114151
aF0.455632
aF0.684546
aF0.0
aF0.622157
aF0.5614
aF0.633018
aF0.658231
aF0.416295
aF0.632931
aa(lp70
F0.038051
aF0.045214
aF0.089751
aF0.605706
aF0.282889
aF0.0
aF0.0
aF0.0
aF0.1154
aF0.132673
aF0.454007
aF0.602192
aF0.132995
aa(lp71
F0.123325
aF0.65557
aF0.071011
aF0.002506
aF0.280519
aF0.60643
aF0.0
aF0.399322
aF0.625816
aF0.039939
aF0.278461
aF0.259589
aF0.231115
aa(lp72
F0.062565
aF0.069753
aF0.241877
aF0.230608
aF0.486289
aF0.0
aF0.0
aF0.0
aF0.391973
aF0.091921
aF0.079344
aF0.192018
aF0.045298
aa(lp73
F0.441393
aF0.03798
aF0.041425
aF0.147865
aF0.406637
aF0.0
aF0.0
aF0.0
aF0.001618
aF0.080098
aF0.188465
aF0.58418
aF0.650145
aa(lp74
F0.063284
aF0.098024
aF0.044931
aF0.686497
aF0.179706
aF0.007844
aF0.260678
aF0.0
aF0.145055
aF0.131935
aF0.451606
aF0.603456
aF0.126832
aa(lp75
F0.025395
aF0.338745
aF0.056921
aF0.024747
aF0.673758
aF0.362517
aF0.0
aF0.0
aF0.098143
aF0.033065
aF0.421211
aF0.292671
aF0.400969
aa(lp76
F0.441393
aF0.03798
aF0.041425
aF0.147865
aF0.406637
aF0.0
aF0.0
aF0.0
aF0.001618
aF0.080098
aF0.188465
aF0.58418
aF0.650145
aa(lp77
F0.014304
aF0.064366
aF0.07923
aF0.514864
aF0.390758
aF0.0
aF0.0
aF0.0
aF0.183325
aF0.131417
aF0.450949
aF0.604903
aF0.137633
aa(lp78
F0.441393
aF0.03798
aF0.041425
aF0.147865
aF0.406637
aF0.0
aF0.0
aF0.0
aF0.001618
aF0.080098
aF0.188465
aF0.58418
aF0.650145
aa(lp79
F0.071173
aF0.04866
aF0.134373
aF0.476854
aF0.461654
aF0.0
aF0.0
aF0.0
aF0.010096
aF0.138829
aF0.368028
aF0.571431
aF0.004434
aa(lp80
F0.133696
aF0.483088
aF0.221841
aF0.090569
aF0.568633
aF0.688687
aF0.0
aF0.009717
aF0.837757
aF0.94382
aF0.815909
aF0.860407
aF0.88249
aa(lp81
F0.058548
aF0.259721
aF0.058698
aF0.075389
aF0.644856
aF0.0
aF0.0
aF0.418235
aF0.289439
aF0.305127
aF0.648697
aF0.649284
aF0.430973
aa(lp82
F0.119186
aF0.042254
aF0.161201
aF0.498573
aF0.241246
aF0.0
aF0.0
aF0.0
aF0.14594
aF0.273577
aF0.548753
aF0.601692
aF0.192808
aa(lp83
F0.074035
aF0.318316
aF0.251916
aF0.050086
aF0.419777
aF0.739936
aF0.0
aF0.0
aF0.787301
aF0.486972
aF0.946766
aF0.698606
aF0.748237
aa(lp84
F0.125402
aF0.5716
aF0.144897
aF0.116503
aF0.105947
aF0.363942
aF0.0
aF0.0
aF0.187817
aF0.74625
aF0.431554
aF0.622649
aF0.837235
aa(lp85
F0.180302
aF0.319373
aF0.06579
aF0.336694
aF0.186179
aF0.0
aF0.0
aF0.0
aF0.240592
aF0.275276
aF0.547353
aF0.599818
aF0.228245
aa(lp86
F0.441393
aF0.03798
aF0.041425
aF0.147865
aF0.406637
aF0.0
aF0.0
aF0.0
aF0.001618
aF0.080098
aF0.188465
aF0.58418
aF0.650145
aa(lp87
F0.441393
aF0.03798
aF0.041425
aF0.147865
aF0.406637
aF0.0
aF0.0
aF0.0
aF0.001618
aF0.080098
aF0.188465
aF0.58418
aF0.650145
aa(lp88
F0.111981
aF0.154843
aF0.164188
aF0.487905
aF0.488139
aF0.333242
aF0.0
aF0.440114
aF0.553855
aF0.542557
aF0.8943
aF0.168247
aF0.781207
aa(lp89
F0.270506
aF0.04915
aF0.055398
aF0.592862
aF0.135682
aF0.153425
aF0.0
aF0.571918
aF0.032892
aF0.390705
aF0.003488
aF0.154978
aF0.702311
aa(lp90
F0.441393
aF0.03798
aF0.041425
aF0.147865
aF0.406637
aF0.0
aF0.0
aF0.0
aF0.001618
aF0.080098
aF0.188465
aF0.58418
aF0.650145
aa(lp91
F0.034892
aF0.033411
aF0.120287
aF0.363984
aF0.536027
aF0.0
aF0.0
aF0.0
aF0.120369
aF0.136696
aF0.463364
aF0.604614
aF0.102938
aa(lp92
F0.441393
aF0.03798
aF0.041425
aF0.147865
aF0.406637
aF0.0
aF0.0
aF0.0
aF0.001618
aF0.080098
aF0.188465
aF0.58418
aF0.650145
aa(lp93
F0.120954
aF0.063208
aF0.091475
aF0.049807
aF0.746061
aF0.0
aF0.0
aF0.213386
aF0.677264
aF0.064916
aF0.767434
aF0.643116
aF0.329208
aa(lp94
F0.108884
aF0.077528
aF0.141569
aF0.477905
aF0.450983
aF0.0
aF0.0
aF0.0
aF0.024544
aF0.157133
aF0.454492
aF0.584286
aF0.041058
aa(lp95
F0.15083
aF0.214071
aF0.397221
aF0.093744
aF0.27292
aF0.821913
aF0.0
aF0.0
aF0.313473
aF0.054915
aF0.705591
aF0.267373
aF0.137977
aa(lp96
F0.104176
aF0.06798
aF0.037366
aF0.408207
aF0.460257
aF0.0
aF0.0
aF0.0
aF0.275583
aF0.215325
aF0.593593
aF0.425479
aF0.348476
aa(lp97
F0.433491
aF0.053386
aF0.343264
aF0.061028
aF0.210183
aF0.0
aF0.0
aF0.0
aF0.281375
aF0.145525
aF0.545302
aF0.541131
aF0.599675
aa(lp98
F0.111116
aF0.437157
aF0.412255
aF0.451949
aF0.548099
aF0.454534
aF0.0
aF0.600835
aF0.756518
aF0.340899
aF0.694522
aF0.932361
aF0.434312
aa(lp99
F0.433491
aF0.053386
aF0.343264
aF0.061028
aF0.210183
aF0.0
aF0.0
aF0.0
aF0.281375
aF0.145525
aF0.545302
aF0.541131
aF0.599675
aa(lp100
F0.365263
aF0.126293
aF0.099066
aF0.046108
aF0.461651
aF0.212731
aF0.0
aF0.647781
aF0.106979
aF0.205119
aF0.329246
aF0.639051
aF0.352473
aa(lp101
F0.170456
aF0.457197
aF0.237321
aF0.07322
aF0.525986
aF0.571738
aF0.0
aF0.205146
aF0.920992
aF0.856608
aF0.787896
aF0.445074
aF0.851183
aa(lp102
F0.365263
aF0.126293
aF0.099066
aF0.046108
aF0.461651
aF0.212731
aF0.0
aF0.647781
aF0.106979
aF0.205119
aF0.329246
aF0.639051
aF0.352473
aa(lp103
F0.433491
aF0.053386
aF0.343264
aF0.061028
aF0.210183
aF0.0
aF0.0
aF0.0
aF0.281375
aF0.145525
aF0.545302
aF0.541131
aF0.599675
aa(lp104
F0.097958
aF0.039898
aF0.077069
aF0.756155
aF0.077612
aF0.019275
aF0.0
aF0.0
aF0.53817
aF0.185939
aF0.652811
aF0.412771
aF0.402616
aa(lp105
F0.365263
aF0.126293
aF0.099066
aF0.046108
aF0.461651
aF0.212731
aF0.0
aF0.647781
aF0.106979
aF0.205119
aF0.329246
aF0.639051
aF0.352473
aa(lp106
F0.113303
aF0.429209
aF0.135296
aF0.249746
aF0.540739
aF0.62671
aF0.0
aF0.819671
aF0.786076
aF0.555144
aF0.865304
aF0.716029
aF0.766267
aa(lp107
F0.093637
aF0.080105
aF0.135379
aF0.567912
aF0.498481
aF0.38495
aF0.0
aF0.84532
aF0.783609
aF0.31068
aF0.881739
aF0.943815
aF0.169073
aa(lp108
F0.365263
aF0.126293
aF0.099066
aF0.046108
aF0.461651
aF0.212731
aF0.0
aF0.647781
aF0.106979
aF0.205119
aF0.329246
aF0.639051
aF0.352473
aa(lp109
F0.365263
aF0.126293
aF0.099066
aF0.046108
aF0.461651
aF0.212731
aF0.0
aF0.647781
aF0.106979
aF0.205119
aF0.329246
aF0.639051
aF0.352473
aa(lp110
F0.365263
aF0.126293
aF0.099066
aF0.046108
aF0.461651
aF0.212731
aF0.0
aF0.647781
aF0.106979
aF0.205119
aF0.329246
aF0.639051
aF0.352473
aa(lp111
F0.365263
aF0.126293
aF0.099066
aF0.046108
aF0.461651
aF0.212731
aF0.0
aF0.647781
aF0.106979
aF0.205119
aF0.329246
aF0.639051
aF0.352473
aa(lp112
F0.424129
aF0.401886
aF0.14829
aF0.188097
aF0.579451
aF0.510387
aF0.0
aF0.764798
aF0.671747
aF0.100587
aF0.130659
aF0.116161
aF0.380332
aa(lp113
F0.433491
aF0.053386
aF0.343264
aF0.061028
aF0.210183
aF0.0
aF0.0
aF0.0
aF0.281375
aF0.145525
aF0.545302
aF0.541131
aF0.599675
aa(lp114
F0.433491
aF0.053386
aF0.343264
aF0.061028
aF0.210183
aF0.0
aF0.0
aF0.0
aF0.281375
aF0.145525
aF0.545302
aF0.541131
aF0.599675
aa(lp115
F0.365263
aF0.126293
aF0.099066
aF0.046108
aF0.461651
aF0.212731
aF0.0
aF0.647781
aF0.106979
aF0.205119
aF0.329246
aF0.639051
aF0.352473
aa(lp116
F0.433491
aF0.053386
aF0.343264
aF0.061028
aF0.210183
aF0.0
aF0.0
aF0.0
aF0.281375
aF0.145525
aF0.545302
aF0.541131
aF0.599675
aa(lp117
F0.039769
aF0.079797
aF0.125795
aF0.497804
aF0.350571
aF0.287617
aF0.0
aF0.287007
aF0.758095
aF0.848818
aF0.905018
aF0.228933
aF0.871413
aa(lp118
F0.365263
aF0.126293
aF0.099066
aF0.046108
aF0.461651
aF0.212731
aF0.0
aF0.647781
aF0.106979
aF0.205119
aF0.329246
aF0.639051
aF0.352473
aa(lp119
F0.365263
aF0.126293
aF0.099066
aF0.046108
aF0.461651
aF0.212731
aF0.0
aF0.647781
aF0.106979
aF0.205119
aF0.329246
aF0.639051
aF0.352473
aa(lp120
F0.365263
aF0.126293
aF0.099066
aF0.046108
aF0.461651
aF0.212731
aF0.0
aF0.647781
aF0.106979
aF0.205119
aF0.329246
aF0.639051
aF0.352473
aa(lp121
F0.365263
aF0.126293
aF0.099066
aF0.046108
aF0.461651
aF0.212731
aF0.0
aF0.647781
aF0.106979
aF0.205119
aF0.329246
aF0.639051
aF0.352473
aa(lp122
F0.365263
aF0.126293
aF0.099066
aF0.046108
aF0.461651
aF0.212731
aF0.0
aF0.647781
aF0.106979
aF0.205119
aF0.329246
aF0.639051
aF0.352473
aa(lp123
F0.41077
aF0.438352
aF0.428362
aF0.072962
aF0.536321
aF0.375302
aF0.0
aF0.6039
aF0.707264
aF0.927979
aF0.84887
aF0.700678
aF0.795077
aa(lp124
F0.257259
aF0.387185
aF0.219255
aF0.06351
aF0.207016
aF0.736354
aF0.892949
aF0.0
aF0.929928
aF0.62111
aF0.766678
aF0.483391
aF0.858827
aa(lp125
F0.112299
aF0.106912
aF0.666141
aF0.610077
aF0.260916
aF0.594426
aF0.0
aF0.001163
aF0.247904
aF0.742741
aF0.351349
aF0.937373
aF0.450097
aa(lp126
F0.41919
aF0.240796
aF0.098033
aF0.258235
aF0.290864
aF0.71719
aF0.0
aF0.364604
aF0.167134
aF0.573464
aF0.234775
aF0.162233
aF0.820117
aa(lp127
F0.365263
aF0.126293
aF0.099066
aF0.046108
aF0.461651
aF0.212731
aF0.0
aF0.647781
aF0.106979
aF0.205119
aF0.329246
aF0.639051
aF0.352473
aa(lp128
F0.365263
aF0.126293
aF0.099066
aF0.046108
aF0.461651
aF0.212731
aF0.0
aF0.647781
aF0.106979
aF0.205119
aF0.329246
aF0.639051
aF0.352473
aa(lp129
F0.365263
aF0.126293
aF0.099066
aF0.046108
aF0.461651
aF0.212731
aF0.0
aF0.647781
aF0.106979
aF0.205119
aF0.329246
aF0.639051
aF0.352473
aa(lp130
F0.087615
aF0.149841
aF0.176649
aF0.209285
aF0.560925
aF0.285906
aF0.0
aF0.653429
aF0.677288
aF0.06605
aF0.085009
aF0.662799
aF0.212929
aa(lp131
F0.365263
aF0.126293
aF0.099066
aF0.046108
aF0.461651
aF0.212731
aF0.0
aF0.647781
aF0.106979
aF0.205119
aF0.329246
aF0.639051
aF0.352473
aa(lp132
F0.365263
aF0.126293
aF0.099066
aF0.046108
aF0.461651
aF0.212731
aF0.0
aF0.647781
aF0.106979
aF0.205119
aF0.329246
aF0.639051
aF0.352473
aa(lp133
F0.365263
aF0.126293
aF0.099066
aF0.046108
aF0.461651
aF0.212731
aF0.0
aF0.647781
aF0.106979
aF0.205119
aF0.329246
aF0.639051
aF0.352473
aa(lp134
F0.242888
aF0.036527
aF0.119245
aF0.248518
aF0.428326
aF0.975158
aF0.0
aF0.978371
aF0.783237
aF0.572169
aF0.19611
aF0.634405
aF0.727693
aa(lp135
F0.170493
aF0.225885
aF0.130565
aF0.036244
aF0.536967
aF0.67368
aF0.0
aF0.716301
aF0.961544
aF0.519787
aF0.354124
aF0.738009
aF0.680453
aa(lp136
F0.365263
aF0.126293
aF0.099066
aF0.046108
aF0.461651
aF0.212731
aF0.0
aF0.647781
aF0.106979
aF0.205119
aF0.329246
aF0.639051
aF0.352473
aa(lp137
F0.365263
aF0.126293
aF0.099066
aF0.046108
aF0.461651
aF0.212731
aF0.0
aF0.647781
aF0.106979
aF0.205119
aF0.329246
aF0.639051
aF0.352473
aa(lp138
F0.433491
aF0.053386
aF0.343264
aF0.061028
aF0.210183
aF0.0
aF0.0
aF0.0
aF0.281375
aF0.145525
aF0.545302
aF0.541131
aF0.599675
aa(lp139
F0.365263
aF0.126293
aF0.099066
aF0.046108
aF0.461651
aF0.212731
aF0.0
aF0.647781
aF0.106979
aF0.205119
aF0.329246
aF0.639051
aF0.352473
aa(lp140
F0.195349
aF0.034882
aF0.06544
aF0.254721
aF0.526911
aF0.659928
aF0.0
aF0.949449
aF0.048893
aF0.000342
aF0.000679
aF0.329516
aF0.138391
aa(lp141
F0.365263
aF0.126293
aF0.099066
aF0.046108
aF0.461651
aF0.212731
aF0.0
aF0.647781
aF0.106979
aF0.205119
aF0.329246
aF0.639051
aF0.352473
aa(lp142
F0.206284
aF0.451315
aF0.469725
aF0.132476
aF0.495103
aF0.567832
aF0.0
aF0.362198
aF0.824911
aF0.7898
aF0.251201
aF0.508568
aF0.704102
aa(lp143
F0.433491
aF0.053386
aF0.343264
aF0.061028
aF0.210183
aF0.0
aF0.0
aF0.0
aF0.281375
aF0.145525
aF0.545302
aF0.541131
aF0.599675
aa(lp144
F0.365263
aF0.126293
aF0.099066
aF0.046108
aF0.461651
aF0.212731
aF0.0
aF0.647781
aF0.106979
aF0.205119
aF0.329246
aF0.639051
aF0.352473
aa(lp145
F0.298514
aF0.225007
aF0.10551
aF0.080015
aF0.370015
aF0.793256
aF0.0
aF0.742727
aF0.762906
aF0.962146
aF0.393571
aF0.848423
aF0.589274
aa(lp146
F0.146193
aF0.145895
aF0.434439
aF0.201194
aF0.546884
aF0.677394
aF0.0
aF0.573906
aF0.911531
aF0.143254
aF0.781191
aF0.272447
aF0.341803
aa(lp147
F0.583853
aF0.091184
aF0.136941
aF0.233164
aF0.539837
aF0.0
aF0.0
aF0.029706
aF0.592797
aF0.156585
aF0.180237
aF0.412184
aF0.551681
aa(lp148
F0.365263
aF0.126293
aF0.099066
aF0.046108
aF0.461651
aF0.212731
aF0.0
aF0.647781
aF0.106979
aF0.205119
aF0.329246
aF0.639051
aF0.352473
aa(lp149
F0.433491
aF0.053386
aF0.343264
aF0.061028
aF0.210183
aF0.0
aF0.0
aF0.0
aF0.281375
aF0.145525
aF0.545302
aF0.541131
aF0.599675
aa(lp150
F0.100207
aF0.159559
aF0.136685
aF0.269156
aF0.496676
aF0.718778
aF0.0
aF0.74855
aF0.243109
aF0.883432
aF0.541404
aF0.799158
aF0.631642
aa(lp151
F0.433491
aF0.053386
aF0.343264
aF0.061028
aF0.210183
aF0.0
aF0.0
aF0.0
aF0.281375
aF0.145525
aF0.545302
aF0.541131
aF0.599675
aa(lp152
F0.365263
aF0.126293
aF0.099066
aF0.046108
aF0.461651
aF0.212731
aF0.0
aF0.647781
aF0.106979
aF0.205119
aF0.329246
aF0.639051
aF0.352473
aa(lp153
F0.433491
aF0.053386
aF0.343264
aF0.061028
aF0.210183
aF0.0
aF0.0
aF0.0
aF0.281375
aF0.145525
aF0.545302
aF0.541131
aF0.599675
aa(lp154
F0.235194
aF0.142177
aF0.32345
aF0.118173
aF0.287245
aF0.838983
aF0.0
aF0.980488
aF0.452368
aF0.717635
aF0.177813
aF0.733767
aF0.840084
aa(lp155
F0.365263
aF0.126293
aF0.099066
aF0.046108
aF0.461651
aF0.212731
aF0.0
aF0.647781
aF0.106979
aF0.205119
aF0.329246
aF0.639051
aF0.352473
aa(lp156
F0.433491
aF0.053386
aF0.343264
aF0.061028
aF0.210183
aF0.0
aF0.0
aF0.0
aF0.281375
aF0.145525
aF0.545302
aF0.541131
aF0.599675
aa(lp157
F0.088754
aF0.031732
aF0.147523
aF0.264228
aF0.540185
aF0.0
aF0.766079
aF0.0
aF0.557295
aF0.701464
aF0.021056
aF0.093747
aF0.851333
aa(lp158
F0.416441
aF0.419263
aF0.12669
aF0.12584
aF0.550833
aF0.639865
aF0.0
aF0.619018
aF0.850576
aF0.918616
aF0.968076
aF0.51249
aF0.937379
aa(lp159
F0.365263
aF0.126293
aF0.099066
aF0.046108
aF0.461651
aF0.212731
aF0.0
aF0.647781
aF0.106979
aF0.205119
aF0.329246
aF0.639051
aF0.352473
aa(lp160
F0.138304
aF0.07169
aF0.085746
aF0.562173
aF0.197182
aF0.044708
aF0.0
aF0.0
aF0.218161
aF0.38442
aF0.737133
aF0.562749
aF0.88014
aa(lp161
F0.365263
aF0.126293
aF0.099066
aF0.046108
aF0.461651
aF0.212731
aF0.0
aF0.647781
aF0.106979
aF0.205119
aF0.329246
aF0.639051
aF0.352473
aa(lp162
F0.226271
aF0.071391
aF0.067233
aF0.127219
aF0.574945
aF0.025586
aF0.0
aF0.0
aF0.216929
aF0.129433
aF0.443555
aF0.604087
aF0.147711
aa(lp163
F0.365263
aF0.126293
aF0.099066
aF0.046108
aF0.461651
aF0.212731
aF0.0
aF0.647781
aF0.106979
aF0.205119
aF0.329246
aF0.639051
aF0.352473
aa(lp164
F0.433491
aF0.053386
aF0.343264
aF0.061028
aF0.210183
aF0.0
aF0.0
aF0.0
aF0.281375
aF0.145525
aF0.545302
aF0.541131
aF0.599675
aa(lp165
F0.365263
aF0.126293
aF0.099066
aF0.046108
aF0.461651
aF0.212731
aF0.0
aF0.647781
aF0.106979
aF0.205119
aF0.329246
aF0.639051
aF0.352473
aa(lp166
F0.365263
aF0.126293
aF0.099066
aF0.046108
aF0.461651
aF0.212731
aF0.0
aF0.647781
aF0.106979
aF0.205119
aF0.329246
aF0.639051
aF0.352473
aa(lp167
F0.109808
aF0.443663
aF0.166406
aF0.43949
aF0.247654
aF0.072175
aF0.0
aF0.748828
aF0.810273
aF0.277874
aF0.5072
aF0.045219
aF0.717018
aa(lp168
F0.365263
aF0.126293
aF0.099066
aF0.046108
aF0.461651
aF0.212731
aF0.0
aF0.647781
aF0.106979
aF0.205119
aF0.329246
aF0.639051
aF0.352473
aa(lp169
F0.074901
aF0.05193
aF0.016302
aF0.728184
aF0.179739
aF0.896183
aF0.0
aF0.0
aF0.146868
aF0.484802
aF0.954054
aF0.762801
aF0.758346
aa(lp170
F0.433491
aF0.053386
aF0.343264
aF0.061028
aF0.210183
aF0.0
aF0.0
aF0.0
aF0.281375
aF0.145525
aF0.545302
aF0.541131
aF0.599675
aa(lp171
F0.365263
aF0.126293
aF0.099066
aF0.046108
aF0.461651
aF0.212731
aF0.0
aF0.647781
aF0.106979
aF0.205119
aF0.329246
aF0.639051
aF0.352473
aa(lp172
F0.365263
aF0.126293
aF0.099066
aF0.046108
aF0.461651
aF0.212731
aF0.0
aF0.647781
aF0.106979
aF0.205119
aF0.329246
aF0.639051
aF0.352473
aa(lp173
F0.433491
aF0.053386
aF0.343264
aF0.061028
aF0.210183
aF0.0
aF0.0
aF0.0
aF0.281375
aF0.145525
aF0.545302
aF0.541131
aF0.599675
aa(lp174
F0.365263
aF0.126293
aF0.099066
aF0.046108
aF0.461651
aF0.212731
aF0.0
aF0.647781
aF0.106979
aF0.205119
aF0.329246
aF0.639051
aF0.352473
aa(lp175
F0.365263
aF0.126293
aF0.099066
aF0.046108
aF0.461651
aF0.212731
aF0.0
aF0.647781
aF0.106979
aF0.205119
aF0.329246
aF0.639051
aF0.352473
aa(lp176
F0.113734
aF0.08914
aF0.384771
aF0.562495
aF0.460868
aF0.159663
aF0.0
aF0.431466
aF0.634327
aF0.616666
aF0.844424
aF0.921247
aF0.278773
aa(lp177
F0.464336
aF0.460878
aF0.16228
aF0.10178
aF0.477978
aF0.295356
aF0.0
aF0.058334
aF0.716619
aF0.823033
aF0.935884
aF0.762379
aF0.847827
aa(lp178
F0.365263
aF0.126293
aF0.099066
aF0.046108
aF0.461651
aF0.212731
aF0.0
aF0.647781
aF0.106979
aF0.205119
aF0.329246
aF0.639051
aF0.352473
aa(lp179
F0.365263
aF0.126293
aF0.099066
aF0.046108
aF0.461651
aF0.212731
aF0.0
aF0.647781
aF0.106979
aF0.205119
aF0.329246
aF0.639051
aF0.352473
aa(lp180
F0.433491
aF0.053386
aF0.343264
aF0.061028
aF0.210183
aF0.0
aF0.0
aF0.0
aF0.281375
aF0.145525
aF0.545302
aF0.541131
aF0.599675
aa(lp181
F0.433491
aF0.053386
aF0.343264
aF0.061028
aF0.210183
aF0.0
aF0.0
aF0.0
aF0.281375
aF0.145525
aF0.545302
aF0.541131
aF0.599675
aa(lp182
F0.365263
aF0.126293
aF0.099066
aF0.046108
aF0.461651
aF0.212731
aF0.0
aF0.647781
aF0.106979
aF0.205119
aF0.329246
aF0.639051
aF0.352473
aa(lp183
F0.083008
aF0.140058
aF0.057895
aF0.558474
aF0.235614
aF0.0
aF0.0
aF0.745773
aF0.948079
aF0.371252
aF0.967354
aF0.606604
aF0.218308
aa(lp184
F0.365263
aF0.126293
aF0.099066
aF0.046108
aF0.461651
aF0.212731
aF0.0
aF0.647781
aF0.106979
aF0.205119
aF0.329246
aF0.639051
aF0.352473
aa(lp185
F0.298514
aF0.225007
aF0.10551
aF0.080015
aF0.370015
aF0.793256
aF0.0
aF0.742727
aF0.762906
aF0.962146
aF0.393571
aF0.848423
aF0.589274
aa(lp186
F0.12843
aF0.156216
aF0.477761
aF0.167468
aF0.496964
aF0.40738
aF0.0
aF0.796721
aF0.779269
aF0.437613
aF0.665151
aF0.63148
aF0.761462
aa(lp187
F0.365263
aF0.126293
aF0.099066
aF0.046108
aF0.461651
aF0.212731
aF0.0
aF0.647781
aF0.106979
aF0.205119
aF0.329246
aF0.639051
aF0.352473
aa(lp188
F0.187575
aF0.127718
aF0.091157
aF0.292961
aF0.531752
aF0.150935
aF0.0
aF0.904708
aF0.952931
aF0.596595
aF0.657715
aF0.118802
aF0.739195
aa(lp189
F0.033723
aF0.075324
aF0.090413
aF0.366521
aF0.503958
aF0.660331
aF0.0
aF0.0
aF0.311256
aF0.188089
aF0.306405
aF0.114671
aF0.66104
aa(lp190
F0.177195
aF0.226188
aF0.18556
aF0.129921
aF0.483715
aF0.713916
aF0.0
aF0.259245
aF0.832866
aF0.707695
aF0.927423
aF0.536154
aF0.850022
aa(lp191
F0.433491
aF0.053386
aF0.343264
aF0.061028
aF0.210183
aF0.0
aF0.0
aF0.0
aF0.281375
aF0.145525
aF0.545302
aF0.541131
aF0.599675
aa(lp192
F0.365263
aF0.126293
aF0.099066
aF0.046108
aF0.461651
aF0.212731
aF0.0
aF0.647781
aF0.106979
aF0.205119
aF0.329246
aF0.639051
aF0.352473
aa(lp193
F0.433491
aF0.053386
aF0.343264
aF0.061028
aF0.210183
aF0.0
aF0.0
aF0.0
aF0.281375
aF0.145525
aF0.545302
aF0.541131
aF0.599675
aa(lp194
F0.433491
aF0.053386
aF0.343264
aF0.061028
aF0.210183
aF0.0
aF0.0
aF0.0
aF0.281375
aF0.145525
aF0.545302
aF0.541131
aF0.599675
aa(lp195
F0.155854
aF0.174859
aF0.42659
aF0.138991
aF0.571646
aF0.55996
aF0.0
aF0.686857
aF0.824
aF0.718364
aF0.517059
aF0.671265
aF0.691769
aa(lp196
F0.365263
aF0.126293
aF0.099066
aF0.046108
aF0.461651
aF0.212731
aF0.0
aF0.647781
aF0.106979
aF0.205119
aF0.329246
aF0.639051
aF0.352473
aa(lp197
F0.512583
aF0.417333
aF0.212042
aF0.10911
aF0.471779
aF0.871391
aF0.0
aF0.48953
aF0.932727
aF0.992997
aF0.855555
aF0.845237
aF0.950289
aa(lp198
F0.251444
aF0.041136
aF0.128448
aF0.076774
aF0.608241
aF0.280846
aF0.0
aF0.99699
aF0.895655
aF0.187954
aF0.102297
aF0.508548
aF0.322102
aa(lp199
F0.13914
aF0.170434
aF0.174249
aF0.125388
aF0.536217
aF0.564954
aF0.0
aF0.291072
aF0.769108
aF0.694455
aF0.893449
aF0.490342
aF0.788329
aa(lp200
F0.433491
aF0.053386
aF0.343264
aF0.061028
aF0.210183
aF0.0
aF0.0
aF0.0
aF0.281375
aF0.145525
aF0.545302
aF0.541131
aF0.599675
aa(lp201
F0.433491
aF0.053386
aF0.343264
aF0.061028
aF0.210183
aF0.0
aF0.0
aF0.0
aF0.281375
aF0.145525
aF0.545302
aF0.541131
aF0.599675
aa(lp202
F0.365263
aF0.126293
aF0.099066
aF0.046108
aF0.461651
aF0.212731
aF0.0
aF0.647781
aF0.106979
aF0.205119
aF0.329246
aF0.639051
aF0.352473
aa(lp203
F0.433491
aF0.053386
aF0.343264
aF0.061028
aF0.210183
aF0.0
aF0.0
aF0.0
aF0.281375
aF0.145525
aF0.545302
aF0.541131
aF0.599675
aa(lp204
F0.365263
aF0.126293
aF0.099066
aF0.046108
aF0.461651
aF0.212731
aF0.0
aF0.647781
aF0.106979
aF0.205119
aF0.329246
aF0.639051
aF0.352473
aa(lp205
F0.365263
aF0.126293
aF0.099066
aF0.046108
aF0.461651
aF0.212731
aF0.0
aF0.647781
aF0.106979
aF0.205119
aF0.329246
aF0.639051
aF0.352473
aa(lp206
F0.115457
aF0.12871
aF0.104613
aF0.450712
aF0.519904
aF0.217682
aF0.0
aF0.392185
aF0.305263
aF0.840857
aF0.635297
aF0.332036
aF0.965899
aa(lp207
F0.092243
aF0.16083
aF0.296857
aF0.100081
aF0.464635
aF0.019275
aF0.85399
aF0.0
aF0.84644
aF0.051784
aF0.788385
aF0.16676
aF0.211659
aa(lp208
F0.433491
aF0.053386
aF0.343264
aF0.061028
aF0.210183
aF0.0
aF0.0
aF0.0
aF0.281375
aF0.145525
aF0.545302
aF0.541131
aF0.599675
aa(lp209
F0.298514
aF0.225007
aF0.10551
aF0.080015
aF0.370015
aF0.793256
aF0.0
aF0.742727
aF0.762906
aF0.962146
aF0.393571
aF0.848423
aF0.589274
aa(lp210
F0.365263
aF0.126293
aF0.099066
aF0.046108
aF0.461651
aF0.212731
aF0.0
aF0.647781
aF0.106979
aF0.205119
aF0.329246
aF0.639051
aF0.352473
aa(lp211
F0.433491
aF0.053386
aF0.343264
aF0.061028
aF0.210183
aF0.0
aF0.0
aF0.0
aF0.281375
aF0.145525
aF0.545302
aF0.541131
aF0.599675
aa(lp212
F0.365263
aF0.126293
aF0.099066
aF0.046108
aF0.461651
aF0.212731
aF0.0
aF0.647781
aF0.106979
aF0.205119
aF0.329246
aF0.639051
aF0.352473
aa(lp213
F0.092468
aF0.114615
aF0.444228
aF0.488387
aF0.53085
aF0.091865
aF0.606694
aF0.0
aF0.627637
aF0.918919
aF0.52132
aF0.593633
aF0.90068
aa(lp214
F0.365263
aF0.126293
aF0.099066
aF0.046108
aF0.461651
aF0.212731
aF0.0
aF0.647781
aF0.106979
aF0.205119
aF0.329246
aF0.639051
aF0.352473
aa(lp215
F0.365263
aF0.126293
aF0.099066
aF0.046108
aF0.461651
aF0.212731
aF0.0
aF0.647781
aF0.106979
aF0.205119
aF0.329246
aF0.639051
aF0.352473
aa(lp216
F0.365263
aF0.126293
aF0.099066
aF0.046108
aF0.461651
aF0.212731
aF0.0
aF0.647781
aF0.106979
aF0.205119
aF0.329246
aF0.639051
aF0.352473
aa(lp217
F0.615175
aF0.108161
aF0.112619
aF0.142158
aF0.082164
aF0.0
aF0.0
aF0.902459
aF0.598569
aF0.304206
aF0.344344
aF0.640336
aF0.559454
aa(lp218
F0.365263
aF0.126293
aF0.099066
aF0.046108
aF0.461651
aF0.212731
aF0.0
aF0.647781
aF0.106979
aF0.205119
aF0.329246
aF0.639051
aF0.352473
aa(lp219
F0.365263
aF0.126293
aF0.099066
aF0.046108
aF0.461651
aF0.212731
aF0.0
aF0.647781
aF0.106979
aF0.205119
aF0.329246
aF0.639051
aF0.352473
aa(lp220
F0.15613
aF0.019285
aF0.013652
aF0.784246
aF0.10764
aF0.611644
aF0.0
aF0.0
aF0.751629
aF0.838552
aF0.769312
aF0.749139
aF0.882991
aa(lp221
F0.06015
aF0.062075
aF0.070863
aF0.095533
aF0.761669
aF0.547016
aF0.0
aF0.71572
aF0.72019
aF0.086425
aF0.285874
aF0.901168
aF0.247417
aa(lp222
F0.365263
aF0.126293
aF0.099066
aF0.046108
aF0.461651
aF0.212731
aF0.0
aF0.647781
aF0.106979
aF0.205119
aF0.329246
aF0.639051
aF0.352473
aa(lp223
F0.049741
aF0.018191
aF0.247304
aF0.357531
aF0.40755
aF0.234366
aF0.0
aF0.761129
aF0.436318
aF0.955679
aF0.47494
aF0.964501
aF0.66769
aa(lp224
F0.171246
aF0.209514
aF0.211316
aF0.007936
aF0.58009
aF0.497777
aF0.0
aF0.379894
aF0.900198
aF0.464187
aF0.284441
aF0.958914
aF0.302127
aa(lp225
F0.365263
aF0.126293
aF0.099066
aF0.046108
aF0.461651
aF0.212731
aF0.0
aF0.647781
aF0.106979
aF0.205119
aF0.329246
aF0.639051
aF0.352473
aa(lp226
F0.365263
aF0.126293
aF0.099066
aF0.046108
aF0.461651
aF0.212731
aF0.0
aF0.647781
aF0.106979
aF0.205119
aF0.329246
aF0.639051
aF0.352473
aa(lp227
F0.365263
aF0.126293
aF0.099066
aF0.046108
aF0.461651
aF0.212731
aF0.0
aF0.647781
aF0.106979
aF0.205119
aF0.329246
aF0.639051
aF0.352473
aa(lp228
F0.365263
aF0.126293
aF0.099066
aF0.046108
aF0.461651
aF0.212731
aF0.0
aF0.647781
aF0.106979
aF0.205119
aF0.329246
aF0.639051
aF0.352473
aa(lp229
F0.365263
aF0.126293
aF0.099066
aF0.046108
aF0.461651
aF0.212731
aF0.0
aF0.647781
aF0.106979
aF0.205119
aF0.329246
aF0.639051
aF0.352473
aa(lp230
F0.365263
aF0.126293
aF0.099066
aF0.046108
aF0.461651
aF0.212731
aF0.0
aF0.647781
aF0.106979
aF0.205119
aF0.329246
aF0.639051
aF0.352473
aa(lp231
F0.433491
aF0.053386
aF0.343264
aF0.061028
aF0.210183
aF0.0
aF0.0
aF0.0
aF0.281375
aF0.145525
aF0.545302
aF0.541131
aF0.599675
aa(lp232
F0.059297
aF0.088537
aF0.438841
aF0.595985
aF0.487033
aF0.073692
aF0.0
aF0.43549
aF0.568104
aF0.559647
aF0.943047
aF0.792923
aF0.621332
aa(lp233
F0.49396
aF0.088132
aF0.083608
aF0.509059
aF0.16849
aF0.784531
aF0.0
aF0.910587
aF0.587454
aF0.641458
aF0.908067
aF0.730296
aF0.932892
aa(lp234
F0.18733
aF0.051873
aF0.008695
aF0.695956
aF0.133898
aF0.651196
aF0.859676
aF0.0
aF0.583067
aF0.28446
aF0.02129
aF0.673155
aF0.486984
aa(lp235
F0.172233
aF0.517328
aF0.469354
aF0.096765
aF0.538705
aF0.588774
aF0.0
aF0.701188
aF0.954653
aF0.911491
aF0.970942
aF0.859707
aF0.861582
aa(lp236
F0.433491
aF0.053386
aF0.343264
aF0.061028
aF0.210183
aF0.0
aF0.0
aF0.0
aF0.281375
aF0.145525
aF0.545302
aF0.541131
aF0.599675
aa(lp237
F0.433491
aF0.053386
aF0.343264
aF0.061028
aF0.210183
aF0.0
aF0.0
aF0.0
aF0.281375
aF0.145525
aF0.545302
aF0.541131
aF0.599675
aa(lp238
F0.01017
aF0.079393
aF0.014002
aF0.825835
aF0.1297
aF0.0
aF0.880065
aF0.0
aF0.27642
aF0.879602
aF0.785841
aF0.982482
aF0.462339
aa(lp239
F0.365263
aF0.126293
aF0.099066
aF0.046108
aF0.461651
aF0.212731
aF0.0
aF0.647781
aF0.106979
aF0.205119
aF0.329246
aF0.639051
aF0.352473
aa(lp240
F0.365263
aF0.126293
aF0.099066
aF0.046108
aF0.461651
aF0.212731
aF0.0
aF0.647781
aF0.106979
aF0.205119
aF0.329246
aF0.639051
aF0.352473
aa(lp241
F0.433491
aF0.053386
aF0.343264
aF0.061028
aF0.210183
aF0.0
aF0.0
aF0.0
aF0.281375
aF0.145525
aF0.545302
aF0.541131
aF0.599675
aa(lp242
F0.365263
aF0.126293
aF0.099066
aF0.046108
aF0.461651
aF0.212731
aF0.0
aF0.647781
aF0.106979
aF0.205119
aF0.329246
aF0.639051
aF0.352473
aa(lp243
F0.365263
aF0.126293
aF0.099066
aF0.046108
aF0.461651
aF0.212731
aF0.0
aF0.647781
aF0.106979
aF0.205119
aF0.329246
aF0.639051
aF0.352473
aa(lp244
F0.365263
aF0.126293
aF0.099066
aF0.046108
aF0.461651
aF0.212731
aF0.0
aF0.647781
aF0.106979
aF0.205119
aF0.329246
aF0.639051
aF0.352473
aa(lp245
F0.433491
aF0.053386
aF0.343264
aF0.061028
aF0.210183
aF0.0
aF0.0
aF0.0
aF0.281375
aF0.145525
aF0.545302
aF0.541131
aF0.599675
aa(lp246
F0.112174
aF0.093748
aF0.452859
aF0.486125
aF0.547288
aF0.290468
aF0.0
aF0.48025
aF0.607446
aF0.036029
aF0.401668
aF0.191354
aF0.36117
aa(lp247
F0.365263
aF0.126293
aF0.099066
aF0.046108
aF0.461651
aF0.212731
aF0.0
aF0.647781
aF0.106979
aF0.205119
aF0.329246
aF0.639051
aF0.352473
aa(lp248
F0.135561
aF0.130466
aF0.084288
aF0.550868
aF0.465821
aF0.082531
aF0.0
aF0.800586
aF0.894076
aF0.978948
aF0.885797
aF0.770568
aF0.800552
aa(lp249
F0.433491
aF0.053386
aF0.343264
aF0.061028
aF0.210183
aF0.0
aF0.0
aF0.0
aF0.281375
aF0.145525
aF0.545302
aF0.541131
aF0.599675
aa(lp250
F0.129967
aF0.093123
aF0.704157
aF0.544024
aF0.513779
aF0.302064
aF0.0
aF0.885683
aF0.68563
aF0.407767
aF0.880322
aF0.95695
aF0.104603
aa(lp251
F0.109016
aF0.091511
aF0.083371
aF0.508718
aF0.48179
aF0.0
aF0.769596
aF0.0
aF0.464189
aF0.866385
aF0.943839
aF0.932625
aF0.621695
aa(lp252
F0.098014
aF0.130234
aF0.187281
aF0.49965
aF0.466079
aF0.366736
aF0.0
aF0.395328
aF0.272438
aF0.390476
aF0.461483
aF0.113486
aF0.67859
aa(lp253
F0.433491
aF0.053386
aF0.343264
aF0.061028
aF0.210183
aF0.0
aF0.0
aF0.0
aF0.281375
aF0.145525
aF0.545302
aF0.541131
aF0.599675
aa(lp254
F0.365263
aF0.126293
aF0.099066
aF0.046108
aF0.461651
aF0.212731
aF0.0
aF0.647781
aF0.106979
aF0.205119
aF0.329246
aF0.639051
aF0.352473
aa(lp255
F0.433491
aF0.053386
aF0.343264
aF0.061028
aF0.210183
aF0.0
aF0.0
aF0.0
aF0.281375
aF0.145525
aF0.545302
aF0.541131
aF0.599675
aa(lp256
F0.082154
aF0.410703
aF0.180171
aF0.507618
aF0.561698
aF0.198588
aF0.0
aF0.51374
aF0.778171
aF0.09031
aF0.398919
aF0.309269
aF0.608582
aa(lp257
F0.11413
aF0.181826
aF0.40768
aF0.144006
aF0.554625
aF0.583803
aF0.013395
aF0.0
aF0.860074
aF0.354236
aF0.690269
aF0.91488
aF0.574864
aa(lp258
F0.124989
aF0.151469
aF0.07006
aF0.485402
aF0.497427
aF0.332756
aF0.0
aF0.522584
aF0.661365
aF0.205456
aF0.412092
aF0.229689
aF0.455176
aa(lp259
F0.18068
aF0.023503
aF0.262511
aF0.102903
aF0.507366
aF0.0
aF0.0
aF0.99631
aF0.830046
aF0.80688
aF0.284342
aF0.981832
aF0.70481
aa(lp260
F0.18068
aF0.023503
aF0.262511
aF0.102903
aF0.507366
aF0.0
aF0.0
aF0.99631
aF0.830046
aF0.80688
aF0.284342
aF0.981832
aF0.70481
aa(lp261
F0.133871
aF0.423889
aF0.236283
aF0.141134
aF0.665346
aF0.477235
aF0.0
aF0.399715
aF0.663751
aF0.73161
aF0.702383
aF0.846335
aF0.502029
aa(lp262
F0.073268
aF0.090214
aF0.183524
aF0.38337
aF0.362987
aF0.694442
aF0.0
aF0.0
aF0.210103
aF0.065801
aF0.770948
aF0.468068
aF0.251995
aa(lp263
F0.138629
aF0.181751
aF0.456369
aF0.19731
aF0.480268
aF0.544605
aF0.0
aF0.113199
aF0.854086
aF0.724901
aF0.378795
aF0.637
aF0.542056
aa(lp264
F0.060536
aF0.244712
aF0.111176
aF0.31645
aF0.530383
aF0.131332
aF0.427076
aF0.0
aF0.785832
aF0.350204
aF0.895006
aF0.826745
aF0.340218
aa(lp265
F0.57707
aF0.199435
aF0.218146
aF0.0931
aF0.505034
aF0.709581
aF0.0
aF0.426302
aF0.910841
aF0.719248
aF0.787727
aF0.252295
aF0.820708
aa(lp266
F0.117747
aF0.238144
aF0.474217
aF0.18074
aF0.489455
aF0.0
aF0.0
aF0.84639
aF0.706697
aF0.082937
aF0.685751
aF0.078827
aF0.425693
aa(lp267
F0.073268
aF0.090214
aF0.183524
aF0.38337
aF0.362987
aF0.694442
aF0.0
aF0.0
aF0.210103
aF0.065801
aF0.770948
aF0.468068
aF0.251995
aa(lp268
F0.061211
aF0.119952
aF0.523547
aF0.195007
aF0.19443
aF0.342325
aF0.0
aF0.245915
aF0.747975
aF0.059642
aF0.56716
aF0.41429
aF0.390051
aa(lp269
F0.135474
aF0.46226
aF0.423163
aF0.431858
aF0.550588
aF0.675551
aF0.0
aF0.16566
aF0.686595
aF0.956227
aF0.899531
aF0.723705
aF0.952036
aa(lp270
F0.322532
aF0.630675
aF0.060853
aF4.5e-05
aF0.131055
aF0.368715
aF0.687589
aF0.0
aF0.870631
aF0.778693
aF0.945249
aF0.775495
aF0.824134
aa(lp271
F0.205578
aF0.206514
aF0.085111
aF0.275031
aF0.528456
aF0.000632
aF0.0
aF0.309193
aF0.477103
aF0.141877
aF0.66628
aF0.681308
aF0.172863
aa(lp272
F0.090687
aF0.200301
aF0.64508
aF0.173845
aF0.265742
aF0.135342
aF0.0
aF0.587607
aF0.825543
aF0.53214
aF0.488624
aF0.445644
aF0.678194
aa(lp273
F0.18068
aF0.023503
aF0.262511
aF0.102903
aF0.507366
aF0.0
aF0.0
aF0.99631
aF0.830046
aF0.80688
aF0.284342
aF0.981832
aF0.70481
aa(lp274
F0.088057
aF0.542897
aF0.233713
aF0.052945
aF0.546799
aF0.599098
aF0.0
aF0.621363
aF0.473858
aF0.184667
aF0.862523
aF0.652039
aF0.338192
aa(lp275
F0.384882
aF0.115163
aF0.114738
aF0.510353
aF0.52557
aF0.459042
aF0.001263
aF0.0
aF0.41587
aF0.575145
aF0.837433
aF0.868488
aF0.608941
aa(lp276
F0.070807
aF0.124331
aF0.170876
aF0.497319
aF0.589329
aF0.016027
aF0.53633
aF0.0
aF0.294456
aF0.170061
aF0.113033
aF0.906105
aF0.091111
aa(lp277
F0.073074
aF0.203507
aF0.481025
aF0.1467
aF0.537005
aF0.559792
aF0.0
aF0.350127
aF0.812421
aF0.919339
aF0.970155
aF0.886278
aF0.847488
aa(lp278
F0.140048
aF0.109483
aF0.399277
aF0.239114
aF0.559843
aF0.315624
aF0.0
aF0.264967
aF0.738272
aF0.559131
aF0.773378
aF0.450803
aF0.971381
aa(lp279
F0.100907
aF0.403757
aF0.464716
aF0.102107
aF0.505938
aF0.122711
aF0.0
aF0.03313
aF0.328897
aF0.074091
aF0.454712
aF0.18124
aF0.467369
aa(lp280
F0.18068
aF0.023503
aF0.262511
aF0.102903
aF0.507366
aF0.0
aF0.0
aF0.99631
aF0.830046
aF0.80688
aF0.284342
aF0.981832
aF0.70481
aa(lp281
F0.038674
aF0.158937
aF0.14558
aF0.485294
aF0.538541
aF0.194438
aF0.0
aF0.014528
aF0.285599
aF0.351865
aF0.457395
aF0.153044
aF0.44776
aa(lp282
F0.195047
aF0.156564
aF0.470185
aF0.147392
aF0.523297
aF0.754045
aF0.0
aF0.562358
aF0.582835
aF0.902735
aF0.774205
aF0.652546
aF0.868908
aa(lp283
F0.139659
aF0.447116
aF0.158742
aF0.180012
aF0.597187
aF0.580544
aF0.0
aF0.013585
aF0.657729
aF0.893185
aF0.977715
aF0.89384
aF0.798113
aa(lp284
F0.101738
aF0.193505
aF0.190846
aF0.45509
aF0.454771
aF0.423499
aF0.0
aF0.364604
aF0.3601
aF0.914727
aF0.874651
aF0.703193
aF0.878261
aa(lp285
F0.18068
aF0.023503
aF0.262511
aF0.102903
aF0.507366
aF0.0
aF0.0
aF0.99631
aF0.830046
aF0.80688
aF0.284342
aF0.981832
aF0.70481
aa(lp286
F0.535505
aF0.46429
aF0.123971
aF0.489313
aF0.432613
aF0.82131
aF0.19703
aF0.0
aF0.291951
aF0.48671
aF0.110201
aF0.007938
aF0.777914
aa(lp287
F0.18068
aF0.023503
aF0.262511
aF0.102903
aF0.507366
aF0.0
aF0.0
aF0.99631
aF0.830046
aF0.80688
aF0.284342
aF0.981832
aF0.70481
aa(lp288
F0.093307
aF0.582764
aF0.165103
aF0.210312
aF0.477117
aF0.452417
aF0.478488
aF0.0
aF0.482685
aF0.942555
aF0.947184
aF0.904473
aF0.881847
aa(lp289
F0.060123
aF0.067154
aF0.232986
aF0.247914
aF0.521478
aF0.122186
aF0.0
aF0.206722
aF0.226731
aF0.348385
aF0.238378
aF0.404766
aF0.861638
aa(lp290
F0.069315
aF0.207231
aF0.098417
aF0.030673
aF0.685651
aF0.0
aF0.0
aF0.0
aF0.774573
aF0.234839
aF0.6562
aF0.696795
aF0.264374
aa(lp291
F0.18068
aF0.023503
aF0.262511
aF0.102903
aF0.507366
aF0.0
aF0.0
aF0.99631
aF0.830046
aF0.80688
aF0.284342
aF0.981832
aF0.70481
aa(lp292
F0.164854
aF0.409236
aF0.607463
aF0.411594
aF0.555562
aF0.436346
aF0.77569
aF0.0
aF0.693248
aF0.979113
aF0.566682
aF0.888964
aF0.845415
aa(lp293
F0.193308
aF0.433513
aF0.189143
aF0.140649
aF0.445062
aF0.811748
aF0.0
aF0.0
aF0.621102
aF0.876066
aF0.879469
aF0.620868
aF0.901147
aa(lp294
F0.535505
aF0.46429
aF0.123971
aF0.489313
aF0.432613
aF0.82131
aF0.19703
aF0.0
aF0.291951
aF0.48671
aF0.110201
aF0.007938
aF0.777914
aa(lp295
F0.139938
aF0.636672
aF0.33157
aF0.002976
aF0.047586
aF0.606914
aF0.0
aF0.893364
aF0.953812
aF0.161849
aF0.70217
aF0.615193
aF0.624258
aa(lp296
F0.611426
aF0.191838
aF0.112973
aF0.2181
aF0.50784
aF0.670776
aF0.0
aF0.502545
aF0.648737
aF0.092097
aF0.635481
aF0.016647
aF0.498835
aa(lp297
F0.129286
aF0.158306
aF0.161773
aF0.149585
aF0.567162
aF0.467858
aF0.0
aF0.022361
aF0.752927
aF0.779902
aF0.839257
aF0.745272
aF0.7654
aa(lp298
F0.073268
aF0.090214
aF0.183524
aF0.38337
aF0.362987
aF0.694442
aF0.0
aF0.0
aF0.210103
aF0.065801
aF0.770948
aF0.468068
aF0.251995
aa(lp299
F0.146348
aF0.104054
aF0.151116
aF0.209205
aF0.536744
aF0.339981
aF0.0
aF0.542419
aF0.785589
aF0.769175
aF0.284394
aF0.016611
aF0.827214
aa(lp300
F0.1946
aF0.421319
aF0.135984
aF0.145699
aF0.478133
aF0.349299
aF0.0
aF0.663214
aF0.787716
aF0.783725
aF0.981159
aF0.840043
aF0.892096
aa(lp301
F0.454363
aF0.200692
aF0.225789
aF0.091503
aF0.48891
aF0.693468
aF0.0
aF0.601901
aF0.867206
aF0.818585
aF0.912176
aF0.507369
aF0.795361
aa(lp302
F0.14772
aF0.24027
aF0.47046
aF0.074047
aF0.50588
aF0.611035
aF0.0
aF0.258419
aF0.493145
aF0.92184
aF0.712635
aF0.684491
aF0.771209
aa(lp303
F0.088473
aF0.42297
aF0.161572
aF0.243144
aF0.509191
aF0.473077
aF0.194744
aF0.0
aF0.468765
aF0.956683
aF0.747103
aF0.728602
aF0.714354
aa(lp304
F0.118842
aF0.157489
aF0.118373
aF0.245785
aF0.530758
aF0.738081
aF0.0
aF0.743113
aF0.86218
aF0.655566
aF0.620463
aF0.206704
aF0.782889
aa(lp305
F0.083242
aF0.155186
aF0.48482
aF0.477036
aF0.476466
aF0.45195
aF0.171334
aF0.0
aF0.550868
aF0.937614
aF0.911716
aF0.939874
aF0.810922
aa(lp306
F0.162963
aF0.427223
aF0.151168
aF0.388229
aF0.589901
aF0.591513
aF0.0
aF0.013261
aF0.907883
aF0.823374
aF0.829907
aF0.236081
aF0.899749
aa(lp307
F0.076784
aF0.252376
aF0.10133
aF0.49424
aF0.423936
aF0.505031
aF0.786745
aF0.0
aF0.770194
aF0.939007
aF0.929068
aF0.805114
aF0.752887
aa(lp308
F0.095495
aF0.477189
aF0.183541
aF0.172384
aF0.547976
aF0.593111
aF0.0
aF0.778026
aF0.737599
aF0.075185
aF0.775791
aF0.831501
aF0.062608
aa(lp309
F0.168675
aF0.091692
aF0.091161
aF0.430334
aF0.57657
aF0.048009
aF0.0
aF0.507531
aF0.107052
aF0.162396
aF0.503379
aF0.468374
aF0.34006
aa(lp310
F0.106243
aF0.463352
aF0.416565
aF0.124528
aF0.560302
aF0.856297
aF0.25864
aF0.0
aF0.940032
aF0.928494
aF0.939063
aF0.697843
aF0.858144
aa(lp311
F0.024101
aF0.095534
aF0.127873
aF0.216354
aF0.565412
aF0.646563
aF0.345843
aF0.0
aF0.72562
aF0.617339
aF0.450687
aF0.185402
aF0.486337
aa(lp312
F0.128989
aF0.456783
aF0.458972
aF0.104376
aF0.359418
aF0.092581
aF0.0
aF0.016895
aF0.854991
aF0.464704
aF0.858245
aF0.720421
aF0.776289
aa(lp313
F0.077675
aF0.169117
aF0.126463
aF0.572592
aF0.525028
aF0.633668
aF0.0
aF0.634053
aF0.778665
aF0.752101
aF0.654195
aF0.900717
aF0.604764
aa(lp314
F0.180048
aF0.202319
aF0.117133
aF0.168544
aF0.420003
aF0.0
aF0.0
aF0.448741
aF0.481691
aF0.567716
aF0.34549
aF0.41488
aF0.676569
aa(lp315
F0.266472
aF0.115091
aF0.224728
aF0.025109
aF0.520009
aF0.578989
aF0.0
aF0.593613
aF0.910643
aF0.931819
aF0.804802
aF0.760356
aF0.929338
aa(lp316
F0.137596
aF0.155789
aF0.138861
aF0.119386
aF0.578289
aF0.819267
aF0.0
aF0.0
aF0.545858
aF0.504406
aF0.936022
aF0.963738
aF0.477043
aa(lp317
F0.037008
aF0.24258
aF0.046479
aF0.508939
aF0.22552
aF0.82131
aF0.0
aF0.880416
aF0.819043
aF0.224047
aF0.106892
aF0.53851
aF0.117452
aa(lp318
F0.092552
aF0.130216
aF0.107665
aF0.504248
aF0.495413
aF0.262231
aF0.0
aF0.405505
aF0.07939
aF0.56137
aF0.937089
aF0.627174
aF0.963276
aa(lp319
F0.113798
aF0.692273
aF0.091162
aF0.013682
aF0.200025
aF0.413515
aF0.0
aF0.287007
aF0.787875
aF0.34967
aF0.932711
aF0.675839
aF0.57874
aa(lp320
F0.049045
aF0.106737
aF0.095517
aF0.501104
aF0.503964
aF0.173642
aF0.0
aF0.507942
aF0.625875
aF0.27036
aF0.794703
aF0.982677
aF0.403711
aa(lp321
F0.096971
aF0.081658
aF0.465382
aF0.181164
aF0.502813
aF0.0
aF0.0
aF0.095059
aF0.580668
aF0.813647
aF0.553201
aF0.379498
aF0.85705
aa(lp322
F0.014628
aF0.2551
aF0.01578
aF0.603436
aF0.196704
aF0.444566
aF0.0
aF0.0
aF0.395242
aF0.130377
aF0.796283
aF0.685287
aF0.501292
aa(lp323
F0.57956
aF0.124743
aF0.54494
aF0.241436
aF0.261464
aF0.720783
aF0.0
aF0.864238
aF0.646862
aF0.571297
aF0.333385
aF0.140741
aF0.857803
aa(lp324
F0.099988
aF0.135796
aF0.248539
aF0.204581
aF0.482212
aF0.592912
aF0.0
aF0.829591
aF0.756137
aF0.284667
aF0.163226
aF0.492656
aF0.180643
aa(lp325
F0.129507
aF0.7584
aF0.058208
aF0.040027
aF0.128455
aF0.649897
aF0.46239
aF0.0
aF0.812711
aF0.98252
aF0.939114
aF0.740842
aF0.967439
aa(lp326
F0.114451
aF0.490135
aF0.125993
aF0.481932
aF0.520323
aF0.400324
aF0.0
aF0.774402
aF0.758796
aF0.590549
aF0.528304
aF0.921337
aF0.511812
aa(lp327
F0.128409
aF0.459441
aF0.416641
aF0.133102
aF0.525817
aF0.781611
aF0.0
aF0.171691
aF0.873353
aF0.978725
aF0.696858
aF0.549038
aF0.86242
aa(lp328
F0.148426
aF0.077051
aF0.156426
aF0.560628
aF0.461965
aF0.0
aF0.0
aF0.109262
aF0.071088
aF0.546237
aF0.202926
aF0.42422
aF0.773257
aa(lp329
F0.140672
aF0.414865
aF0.174381
aF0.272349
aF0.567419
aF0.590448
aF0.0
aF0.368202
aF0.5321
aF0.39806
aF0.777105
aF0.27371
aF0.596919
aa(lp330
F0.096194
aF0.157633
aF0.135331
aF0.107108
aF0.639894
aF0.258822
aF0.0
aF0.425614
aF0.686442
aF0.839482
aF0.849303
aF0.905248
aF0.719849
aa(lp331
F0.112683
aF0.422459
aF0.488348
aF0.516243
aF0.191801
aF0.0
aF0.0
aF0.0
aF0.600283
aF0.589349
aF0.604712
aF0.491676
aF0.930841
aa(lp332
F0.467481
aF0.262294
aF0.357325
aF0.001003
aF0.081516
aF0.028362
aF0.0
aF0.803444
aF0.276123
aF0.866638
aF0.732875
aF0.562888
aF0.703876
aa(lp333
F0.063841
aF0.093179
aF0.073236
aF0.530491
aF0.523808
aF0.001071
aF0.842989
aF0.0
aF0.092145
aF0.961842
aF0.495494
aF0.99577
aF0.793578
aa(lp334
F0.094389
aF0.229522
aF0.161333
aF0.18687
aF0.541481
aF0.451326
aF0.0
aF0.091112
aF0.91795
aF0.638764
aF0.482938
aF0.558382
aF0.771163
aa(lp335
F0.074274
aF0.128914
aF0.148105
aF0.500859
aF0.51828
aF0.491589
aF0.0
aF0.393679
aF0.558537
aF0.33082
aF0.276443
aF0.018941
aF0.745049
aa(lp336
F0.15211
aF0.102961
aF0.111568
aF0.541025
aF0.473456
aF0.620176
aF0.0
aF0.148168
aF0.394598
aF0.398383
aF0.732195
aF0.867052
aF0.749728
aa(lp337
F0.151955
aF0.435411
aF0.139937
aF0.541403
aF0.502954
aF0.514742
aF0.0
aF0.320386
aF0.924362
aF0.311057
aF0.723888
aF0.099046
aF0.621497
aa(lp338
F0.097658
aF0.455374
aF0.173464
aF0.201483
aF0.529357
aF0.717241
aF0.0
aF0.72176
aF0.969507
aF0.339705
aF0.107777
aF0.319176
aF0.403931
aa(lp339
F0.467481
aF0.262294
aF0.357325
aF0.001003
aF0.081516
aF0.028362
aF0.0
aF0.803444
aF0.276123
aF0.866638
aF0.732875
aF0.562888
aF0.703876
aa(lp340
F0.099877
aF0.209407
aF0.10689
aF0.253979
aF0.481005
aF0.034709
aF0.0
aF0.261337
aF0.753719
aF0.181523
aF0.401519
aF0.376049
aF0.381429
aa(lp341
F0.137047
aF0.142889
aF0.409496
aF0.216608
aF0.50585
aF0.660196
aF0.0
aF0.880997
aF0.795307
aF0.177564
aF0.233373
aF0.372776
aF0.119195
aa(lp342
F0.068028
aF0.085957
aF0.099302
aF0.557403
aF0.497148
aF0.308545
aF0.0
aF0.31937
aF0.861387
aF0.061929
aF0.616867
aF0.016569
aF0.124646
aa(lp343
F0.114451
aF0.490135
aF0.125993
aF0.481932
aF0.520323
aF0.400324
aF0.0
aF0.774402
aF0.758796
aF0.590549
aF0.528304
aF0.921337
aF0.511812
aa(lp344
F0.106219
aF0.252732
aF0.109641
aF0.328562
aF0.282826
aF0.136661
aF0.0
aF0.0
aF0.487006
aF0.689044
aF0.932781
aF0.713818
aF0.84352
aa(lp345
F0.137588
aF0.434131
aF0.483528
aF0.093124
aF0.512674
aF0.865574
aF0.0
aF0.679207
aF0.813548
aF0.485873
aF0.49581
aF0.275403
aF0.651956
aa(lp346
F0.118777
aF0.418037
aF0.210618
aF0.264092
aF0.2329
aF0.630789
aF0.0
aF0.079421
aF0.960825
aF0.602418
aF0.787225
aF0.195557
aF0.829448
aa(lp347
F0.087184
aF0.130606
aF0.45305
aF0.245286
aF0.52884
aF0.205728
aF0.0
aF0.522351
aF0.592449
aF0.433822
aF0.178488
aF0.216355
aF0.272588
aa(lp348
F0.096194
aF0.157633
aF0.135331
aF0.107108
aF0.639894
aF0.258822
aF0.0
aF0.425614
aF0.686442
aF0.839482
aF0.849303
aF0.905248
aF0.719849
aa(lp349
F0.114451
aF0.490135
aF0.125993
aF0.481932
aF0.520323
aF0.400324
aF0.0
aF0.774402
aF0.758796
aF0.590549
aF0.528304
aF0.921337
aF0.511812
aa(lp350
F0.070489
aF0.10597
aF0.169149
aF0.538019
aF0.479019
aF0.790876
aF0.0
aF0.216979
aF0.697257
aF0.713522
aF0.66514
aF0.327229
aF0.837309
aa(lp351
F0.067614
aF0.187178
aF0.430556
aF0.433221
aF0.530202
aF0.708174
aF0.14867
aF0.0
aF0.729311
aF0.965615
aF0.780125
aF0.687031
aF0.888536
aa(lp352
F0.187108
aF0.346967
aF0.201786
aF0.031501
aF0.333552
aF0.747663
aF0.0
aF0.698156
aF0.923522
aF0.908036
aF0.971268
aF0.88697
aF0.929487
aa(lp353
F0.467566
aF0.526303
aF0.473424
aF0.083045
aF0.363011
aF0.472422
aF0.556055
aF0.0
aF0.706577
aF0.936461
aF0.755563
aF0.784381
aF0.853241
aa(lp354
F0.125832
aF0.145967
aF0.485108
aF0.25348
aF0.521861
aF0.0
aF0.0
aF0.299148
aF0.876873
aF0.133082
aF0.489594
aF0.037973
aF0.688874
aa(lp355
F0.134839
aF0.219938
aF0.172751
aF0.270209
aF0.296736
aF0.767542
aF0.0
aF0.20936
aF0.920556
aF0.396981
aF0.053059
aF0.156196
aF0.470576
aa(lp356
F0.089072
aF0.091844
aF0.495405
aF0.205039
aF0.487959
aF0.506138
aF0.0
aF0.348673
aF0.464491
aF0.453535
aF0.468868
aF0.194253
aF0.847433
aa(lp357
F0.079042
aF0.20976
aF0.504729
aF0.199652
aF0.486405
aF0.168575
aF0.0
aF0.191235
aF0.791554
aF0.287866
aF0.899436
aF0.777942
aF0.689669
aa(lp358
F0.119137
aF0.438138
aF0.149802
aF0.18914
aF0.484083
aF0.709603
aF0.0
aF0.096699
aF0.986788
aF0.338951
aF0.382464
aF0.058136
aF0.53273
aa(lp359
F0.133019
aF0.26217
aF0.086571
aF0.458172
aF0.155243
aF0.887475
aF0.0
aF0.0
aF0.742638
aF0.196695
aF0.649883
aF0.469831
aF0.412962
aa(lp360
F0.050805
aF0.08582
aF0.151898
aF0.569317
aF0.493578
aF0.275347
aF0.682161
aF0.0
aF0.549871
aF0.903352
aF0.48418
aF0.744562
aF0.713479
aa(lp361
F0.113439
aF0.424934
aF0.170796
aF0.247655
aF0.50288
aF0.45889
aF0.0
aF0.416617
aF0.663281
aF0.257638
aF0.836832
aF0.214871
aF0.649131
aa(lp362
F0.14431
aF0.168642
aF0.154658
aF0.476129
aF0.442342
aF0.552129
aF0.0
aF0.358123
aF0.520742
aF0.659783
aF0.88533
aF0.729043
aF0.699762
aa(lp363
F0.157982
aF0.536871
aF0.148155
aF0.071554
aF0.502422
aF0.935258
aF0.0
aF0.54773
aF0.806945
aF0.885203
aF0.712705
aF0.7321
aF0.901517
aa(lp364
F0.138315
aF0.506947
aF0.079643
aF0.188468
aF0.644892
aF0.392827
aF0.0
aF0.0
aF0.626958
aF0.55907
aF0.427659
aF0.099584
aF0.83501
aa(lp365
F0.172304
aF0.569
aF0.079675
aF0.010119
aF0.340834
aF0.754451
aF0.0
aF0.312539
aF0.362944
aF0.891528
aF0.684367
aF0.355234
aF0.886276
aa(lp366
F0.061932
aF0.142772
aF0.156554
aF0.251218
aF0.484405
aF0.24604
aF0.0
aF0.582136
aF0.940715
aF0.497658
aF0.480771
aF0.6883
aF0.383688
aa(lp367
F0.090958
aF0.426046
aF0.662953
aF0.481213
aF0.20943
aF0.582395
aF0.0
aF0.740241
aF0.780199
aF0.342592
aF0.331303
aF0.159131
aF0.596521
aa(lp368
F0.322277
aF0.231642
aF0.474107
aF0.004959
aF0.13996
aF0.649864
aF0.0
aF0.760099
aF0.617484
aF0.886648
aF0.872145
aF0.71435
aF0.896384
aa(lp369
F0.10203
aF0.394836
aF0.080864
aF0.236339
aF0.259632
aF0.376315
aF0.60167
aF0.0
aF0.713316
aF0.930188
aF0.785756
aF0.951195
aF0.878564
aa(lp370
F0.249761
aF0.256717
aF0.140294
aF0.00176
aF0.471771
aF0.546128
aF0.0
aF0.287007
aF0.549202
aF0.319576
aF0.889188
aF0.714157
aF0.90148
aa(lp371
F0.216356
aF0.094607
aF0.197803
aF0.138627
aF0.444157
aF0.596122
aF0.0
aF0.0
aF0.612276
aF0.553268
aF0.498572
aF0.588833
aF0.588931
aa(lp372
F0.148841
aF0.102152
aF0.118206
aF0.34099
aF0.583237
aF0.297723
aF0.0
aF0.467144
aF0.703492
aF0.020879
aF0.786953
aF0.743664
aF0.4206
aa(lp373
F0.098919
aF0.070235
aF0.154485
aF0.497853
aF0.573896
aF0.0
aF0.0
aF0.0
aF0.46276
aF0.549359
aF0.883082
aF0.849039
aF0.682664
aa(lp374
F0.053471
aF0.120316
aF0.120342
aF0.601703
aF0.523391
aF0.108577
aF0.144726
aF0.0
aF0.575709
aF0.198384
aF0.936044
aF0.739884
aF0.564491
aa(lp375
F0.164064
aF0.221252
aF0.222434
aF0.198382
aF0.488137
aF0.597888
aF0.0
aF0.897739
aF0.807054
aF0.318973
aF0.022983
aF0.358018
aF0.07545
aa(lp376
F0.105457
aF0.199269
aF0.498882
aF0.208529
aF0.450146
aF0.513735
aF0.0
aF0.513244
aF0.940362
aF0.211081
aF0.199531
aF0.061319
aF0.237684
aa(lp377
F0.01881
aF0.356841
aF0.201443
aF0.039841
aF0.512827
aF0.904127
aF0.0
aF0.24102
aF0.95538
aF0.253584
aF0.130216
aF0.331314
aF0.175952
aa(lp378
F0.086447
aF0.088254
aF0.158238
aF0.478152
aF0.549828
aF0.442321
aF0.73236
aF0.0
aF0.093567
aF0.367222
aF0.654095
aF0.392223
aF0.581169
aa(lp379
F0.124858
aF0.067903
aF0.050217
aF0.063527
aF0.774117
aF0.301748
aF0.0
aF0.0
aF0.677744
aF0.393863
aF0.510352
aF0.866303
aF0.404798
aa(lp380
F0.154903
aF0.45376
aF0.132331
aF0.158378
aF0.50994
aF0.530265
aF0.0
aF0.588494
aF0.786625
aF0.526683
aF0.895587
aF0.553125
aF0.757062
aa(lp381
F0.062828
aF0.121617
aF0.61755
aF0.056042
aF0.22534
aF0.097629
aF0.0
aF0.642407
aF0.703447
aF0.09833
aF0.644835
aF0.944925
aF0.254749
aa(lp382
F0.129289
aF0.136808
aF0.491668
aF0.105689
aF0.555659
aF0.050813
aF0.0
aF0.216222
aF0.273973
aF0.914197
aF0.192831
aF0.687316
aF0.849467
aa(lp383
F0.440103
aF0.441438
aF0.415429
aF0.448981
aF0.487819
aF0.504265
aF0.0
aF0.65214
aF0.764714
aF0.791271
aF0.472929
aF0.428492
aF0.467092
aa(lp384
F0.130356
aF0.122012
aF0.118835
aF0.530951
aF0.535372
aF0.666306
aF0.0
aF0.690519
aF0.683132
aF0.884854
aF0.567236
aF0.112245
aF0.849086
aa(lp385
F0.168109
aF0.239816
aF0.101052
aF0.189697
aF0.630768
aF0.263317
aF0.0
aF0.20149
aF0.326454
aF0.571032
aF0.518376
aF0.531477
aF0.695596
aa(lp386
F0.120333
aF0.405176
aF0.123015
aF0.296385
aF0.501098
aF0.667932
aF0.0
aF0.365068
aF0.709327
aF0.929368
aF0.641133
aF0.367042
aF0.899497
aa(lp387
F0.696747
aF0.089143
aF0.043567
aF0.065175
aF0.189839
aF0.402867
aF0.0
aF0.32403
aF0.396455
aF0.252977
aF0.572245
aF0.171195
aF0.693999
aa(lp388
F0.257809
aF0.197101
aF0.130733
aF0.284867
aF0.230711
aF0.435371
aF0.0
aF0.0
aF0.324066
aF0.824773
aF0.783925
aF0.757933
aF0.792299
aa(lp389
F0.258375
aF0.060001
aF0.178481
aF0.170985
aF0.422567
aF0.243971
aF0.0
aF0.0
aF0.649251
aF0.507855
aF0.49143
aF0.554903
aF0.564264
aa(lp390
F0.216356
aF0.094607
aF0.197803
aF0.138627
aF0.444157
aF0.596122
aF0.0
aF0.0
aF0.612276
aF0.553268
aF0.498572
aF0.588833
aF0.588931
aa(lp391
F0.084568
aF0.076458
aF0.477154
aF0.280154
aF0.552476
aF0.225318
aF0.0
aF0.637457
aF0.802898
aF0.472448
aF0.080704
aF0.052096
aF0.486979
aa(lp392
F0.10302
aF0.194884
aF0.17997
aF0.509987
aF0.622701
aF0.0
aF0.0
aF0.627041
aF0.338194
aF0.874251
aF0.934354
aF0.837848
aF0.815918
aa(lp393
F0.084187
aF0.363677
aF0.112871
aF0.004244
aF0.587218
aF0.880662
aF0.0
aF0.305892
aF0.269793
aF0.247517
aF0.368729
aF0.085408
aF0.530051
aa(lp394
F0.110345
aF0.079461
aF0.143948
aF0.209844
aF0.500879
aF0.751495
aF0.0
aF0.62322
aF0.684646
aF0.723073
aF0.050572
aF0.132565
aF0.589969
aa(lp395
F0.081497
aF0.110742
aF0.635347
aF0.117437
aF0.525679
aF0.264727
aF0.0
aF0.0
aF0.648239
aF0.715129
aF0.752252
aF0.609696
aF0.689958
aa(lp396
F0.121284
aF0.467199
aF0.456017
aF0.021801
aF0.301009
aF0.010433
aF0.364813
aF0.0
aF0.736101
aF0.948097
aF0.857766
aF0.36733
aF0.93919
aa(lp397
F0.179392
aF0.211898
aF0.11625
aF0.133078
aF0.500086
aF0.801956
aF0.0
aF0.565252
aF0.755555
aF0.979749
aF0.843581
aF0.789405
aF0.897132
aa(lp398
F0.131255
aF0.195003
aF0.430992
aF0.141648
aF0.535827
aF0.783569
aF0.0
aF0.656623
aF0.789369
aF0.738908
aF0.549507
aF0.272226
aF0.77397
aa(lp399
F0.216356
aF0.094607
aF0.197803
aF0.138627
aF0.444157
aF0.596122
aF0.0
aF0.0
aF0.612276
aF0.553268
aF0.498572
aF0.588833
aF0.588931
aa(lp400
F0.147928
aF0.172608
aF0.080282
aF0.001849
aF0.724713
aF0.287617
aF0.537798
aF0.0
aF0.853022
aF0.587544
aF0.80031
aF0.547998
aF0.828303
aa(lp401
F0.156375
aF0.400425
aF0.188833
aF0.145842
aF0.197221
aF0.380851
aF0.0
aF0.0
aF0.597834
aF0.800591
aF0.931366
aF0.878059
aF0.685313
aa(lp402
F0.04686
aF0.145886
aF0.046522
aF0.547895
aF0.295919
aF0.000176
aF0.0
aF0.210034
aF0.255526
aF0.66051
aF0.678748
aF0.93447
aF0.593167
aa(lp403
F0.015552
aF0.032547
aF0.012498
aF0.645496
aF0.296024
aF0.145795
aF0.0
aF0.12124
aF0.491434
aF0.24515
aF0.501398
aF0.432091
aF0.379138
aa(lp404
F0.460856
aF0.42207
aF0.614302
aF0.489529
aF0.445721
aF0.417009
aF0.0
aF0.265503
aF0.816118
aF0.655975
aF0.963091
aF0.413585
aF0.912345
aa(lp405
F0.094179
aF0.158073
aF0.143366
aF0.477959
aF0.476725
aF0.414229
aF0.351197
aF0.0
aF0.514044
aF0.916236
aF0.942598
aF0.867525
aF0.90876
aa(lp406
F0.315582
aF0.153804
aF0.064546
aF0.005778
aF0.625337
aF0.638726
aF0.0
aF0.885565
aF0.838169
aF0.829662
aF0.98926
aF0.859054
aF0.879204
aa(lp407
F0.062828
aF0.121617
aF0.61755
aF0.056042
aF0.22534
aF0.097629
aF0.0
aF0.642407
aF0.703447
aF0.09833
aF0.644835
aF0.944925
aF0.254749
aa(lp408
F0.187108
aF0.346967
aF0.201786
aF0.031501
aF0.333552
aF0.747663
aF0.0
aF0.698156
aF0.923522
aF0.908036
aF0.971268
aF0.88697
aF0.929487
aa(lp409
F0.400948
aF0.421809
aF0.187235
aF0.164218
aF0.522064
aF0.560471
aF0.0
aF0.503313
aF0.838811
aF0.977907
aF0.922351
aF0.802716
aF0.92332
aa(lp410
F0.067724
aF0.104894
aF0.114754
aF0.642084
aF0.107379
aF0.02713
aF0.0
aF0.424786
aF0.698501
aF0.205467
aF0.431028
aF0.709578
aF0.545538
aa(lp411
F0.126159
aF0.136519
aF0.133204
aF0.499121
aF0.301129
aF0.22435
aF0.0
aF0.483817
aF0.893157
aF0.590435
aF0.63676
aF0.022685
aF0.633678
aa(lp412
F0.048473
aF0.196848
aF0.557782
aF0.128676
aF0.322772
aF0.200224
aF0.0
aF0.394206
aF0.488964
aF0.636705
aF0.540943
aF0.575656
aF0.465272
aa(lp413
F0.137778
aF0.366629
aF0.258246
aF0.008644
aF0.364359
aF0.551743
aF0.0
aF0.24841
aF0.684281
aF0.760341
aF0.96003
aF0.762026
aF0.956533
aa(lp414
F0.069918
aF0.105679
aF0.118108
aF0.508908
aF0.601151
aF0.0
aF0.0
aF0.370625
aF0.507525
aF0.296994
aF0.574284
aF0.504349
aF0.673435
aa(lp415
F0.475461
aF0.134686
aF0.118857
aF0.253048
aF0.447982
aF0.865661
aF0.0
aF0.709291
aF0.290758
aF0.461473
aF0.135211
aF0.04955
aF0.79582
aa(lp416
F0.085018
aF0.167465
aF0.077747
aF0.148966
aF0.639484
aF0.736354
aF0.0
aF0.0
aF0.665055
aF0.510763
aF0.973106
aF0.961792
aF0.596235
aa(lp417
F0.189068
aF0.169035
aF0.393241
aF0.190467
aF0.502309
aF0.720953
aF0.0
aF0.281284
aF0.806274
aF0.47698
aF0.523862
aF0.32997
aF0.51925
aa(lp418
F0.059989
aF0.105948
aF0.113889
aF0.567781
aF0.475528
aF0.086318
aF0.0
aF0.050918
aF0.622671
aF0.036423
aF0.982993
aF0.785218
aF0.237009
aa(lp419
F0.129669
aF0.464527
aF0.482398
aF0.154052
aF0.4682
aF0.666189
aF0.001073
aF0.0
aF0.828441
aF0.852491
aF0.714475
aF0.303802
aF0.694152
aa(lp420
F0.152873
aF0.148368
aF0.083822
aF0.217756
aF0.54658
aF0.469719
aF0.0
aF0.403948
aF0.707816
aF0.959911
aF0.667109
aF0.509698
aF0.957358
aa(lp421
F0.131255
aF0.195003
aF0.430992
aF0.141648
aF0.535827
aF0.783569
aF0.0
aF0.656623
aF0.789369
aF0.738908
aF0.549507
aF0.272226
aF0.77397
aa(lp422
F0.083611
aF0.117862
aF0.122232
aF0.272597
aF0.533695
aF0.042777
aF0.0
aF0.441368
aF0.539712
aF0.684516
aF0.663385
aF0.742088
aF0.609671
aa(lp423
F0.213642
aF0.184705
aF0.412782
aF0.172959
aF0.492521
aF0.714031
aF0.0
aF0.045219
aF0.624638
aF0.597203
aF0.934766
aF0.480291
aF0.890101
aa(lp424
F0.09884
aF0.123436
aF0.106975
aF0.546956
aF0.516911
aF0.054897
aF0.0
aF0.419419
aF0.330175
aF0.211016
aF0.99062
aF0.790754
aF0.386781
aa(lp425
F0.16288
aF0.599688
aF0.080139
aF0.063448
aF0.576227
aF0.453451
aF0.0
aF0.616216
aF0.751634
aF0.888821
aF0.700033
aF0.615686
aF0.691289
aa(lp426
F0.163179
aF0.471463
aF0.241703
aF0.090263
aF0.449542
aF0.447855
aF0.0
aF0.110541
aF0.564333
aF0.480284
aF0.75661
aF0.550496
aF0.88011
aa(lp427
F0.125044
aF0.412568
aF0.454615
aF0.161492
aF0.448492
aF0.83798
aF0.0
aF0.118933
aF0.603246
aF0.583727
aF0.567473
aF0.486648
aF0.851568
aa(lp428
F0.114736
aF0.185621
aF0.149752
aF0.177
aF0.54215
aF0.093877
aF0.0
aF0.747677
aF0.348172
aF0.228007
aF0.334969
aF0.043934
aF0.580514
aa(lp429
F0.072054
aF0.303551
aF0.012964
aF0.241488
aF0.485737
aF0.304881
aF0.0
aF0.0
aF0.46417
aF0.949943
aF0.837665
aF0.978834
aF0.968097
aa(lp430
F0.102013
aF0.172804
aF0.131564
aF0.173027
aF0.546532
aF0.575335
aF0.0
aF0.339162
aF0.316603
aF0.468536
aF0.895554
aF0.752496
aF0.61364
aa(lp431
F0.425374
aF0.132858
aF0.552002
aF0.12314
aF0.524176
aF0.338733
aF0.0
aF0.618784
aF0.937301
aF0.439292
aF0.691936
aF0.024654
aF0.258442
aa(lp432
F0.157299
aF0.466294
aF0.14597
aF0.152795
aF0.536347
aF0.395563
aF0.0
aF0.631485
aF0.726002
aF0.919394
aF0.721863
aF0.795926
aF0.938594
aa(lp433
F0.414212
aF0.470122
aF0.476974
aF0.128452
aF0.513183
aF0.684753
aF0.0
aF0.331692
aF0.861096
aF0.858085
aF0.833485
aF0.456597
aF0.844982
aa(lp434
F0.117908
aF0.140751
aF0.152822
aF0.251739
aF0.477024
aF0.341997
aF0.826854
aF0.0
aF0.544024
aF0.832561
aF0.033284
aF0.031961
aF0.832971
aa(lp435
F0.139875
aF0.415255
aF0.174501
aF0.28747
aF0.503843
aF0.685442
aF0.0
aF0.454433
aF0.528855
aF0.732048
aF0.92803
aF0.593947
aF0.800532
aa(lp436
F0.110222
aF0.070782
aF0.229969
aF0.01816
aF0.704005
aF0.562529
aF0.0
aF0.689515
aF0.867114
aF0.170422
aF0.686395
aF0.918021
aF0.306737
aa(lp437
F0.249761
aF0.256717
aF0.140294
aF0.00176
aF0.471771
aF0.546128
aF0.0
aF0.287007
aF0.549202
aF0.319576
aF0.889188
aF0.714157
aF0.90148
aa(lp438
F0.128574
aF0.212171
aF0.45788
aF0.205052
aF0.462468
aF0.482865
aF0.0
aF0.536571
aF0.94035
aF0.840458
aF0.957935
aF0.577726
aF0.835982
aa(lp439
F0.128408
aF0.23537
aF0.377438
aF0.146953
aF0.53587
aF0.404915
aF0.0
aF0.572664
aF0.735675
aF0.488337
aF0.548531
aF0.881572
aF0.745881
aa(lp440
F0.082778
aF0.480667
aF0.400984
aF0.247966
aF0.506986
aF0.248302
aF0.0
aF0.665493
aF0.982827
aF0.156141
aF0.298392
aF0.133756
aF0.32965
aa(lp441
F0.141984
aF0.166805
aF0.431945
aF0.161165
aF0.499352
aF0.540242
aF0.0
aF0.484028
aF0.754525
aF0.781974
aF0.816751
aF0.330915
aF0.708113
aa(lp442
F0.184259
aF0.129466
aF0.095459
aF0.124663
aF0.577958
aF0.225263
aF0.0
aF0.24841
aF0.683687
aF0.790005
aF0.898803
aF0.970339
aF0.682644
aa(lp443
F0.106422
aF0.182498
aF0.237816
aF0.173956
aF0.525961
aF0.033237
aF0.0
aF0.575471
aF0.409032
aF0.420557
aF0.681126
aF0.365455
aF0.797499
aa(lp444
F0.108285
aF0.488125
aF0.179625
aF0.202002
aF0.518438
aF0.257542
aF0.0
aF0.37718
aF0.496351
aF0.909897
aF0.854904
aF0.715588
aF0.880758
aa(lp445
F0.126796
aF0.124195
aF0.517535
aF0.150058
aF0.469524
aF0.672557
aF0.0
aF0.434675
aF0.131172
aF0.068491
aF0.332258
aF0.201702
aF0.803657
aa(lp446
F0.110945
aF0.128652
aF0.498262
aF0.205264
aF0.472139
aF0.862011
aF0.0
aF0.527189
aF0.83217
aF0.522809
aF0.22701
aF0.152949
aF0.672968
aa(lp447
F0.413801
aF0.484993
aF0.168472
aF0.174262
aF0.489346
aF0.570918
aF0.0
aF0.50896
aF0.76223
aF0.860226
aF0.932081
aF0.731478
aF0.868968
aa(lp448
F0.106243
aF0.463352
aF0.416565
aF0.124528
aF0.560302
aF0.856297
aF0.25864
aF0.0
aF0.940032
aF0.928494
aF0.939063
aF0.697843
aF0.858144
aa(lp449
F0.216356
aF0.094607
aF0.197803
aF0.138627
aF0.444157
aF0.596122
aF0.0
aF0.0
aF0.612276
aF0.553268
aF0.498572
aF0.588833
aF0.588931
aa(lp450
F0.148401
aF0.448263
aF0.217577
aF0.0495
aF0.604119
aF0.369748
aF0.0
aF0.720805
aF0.738538
aF0.075155
aF0.530115
aF0.188955
aF0.299429
aa(lp451
F0.092282
aF0.094087
aF0.557662
aF0.020712
aF0.329739
aF0.0
aF0.104106
aF0.0
aF0.113008
aF0.692818
aF0.225529
aF0.69083
aF0.545932
aa(lp452
F0.151306
aF0.471785
aF0.124464
aF0.478574
aF0.553484
aF0.53577
aF0.0
aF0.736229
aF0.473561
aF0.816735
aF0.879609
aF0.279231
aF0.983558
aa(lp453
F0.020603
aF0.265491
aF0.072693
aF0.172315
aF0.525323
aF0.0
aF0.806761
aF0.0
aF0.975883
aF0.923847
aF0.906457
aF0.102061
aF0.901573
aa(lp454
F0.216356
aF0.094607
aF0.197803
aF0.138627
aF0.444157
aF0.596122
aF0.0
aF0.0
aF0.612276
aF0.553268
aF0.498572
aF0.588833
aF0.588931
aa(lp455
F0.125374
aF0.18745
aF0.202357
aF0.169079
aF0.480795
aF0.619842
aF0.0
aF0.736463
aF0.933829
aF0.264243
aF0.022676
aF0.041244
aF0.57582
aa(lp456
F0.147319
aF0.182932
aF0.54852
aF0.159357
aF0.500456
aF0.684037
aF0.0
aF0.845118
aF0.517199
aF0.386951
aF0.254711
aF0.609817
aF0.344984
aa(lp457
F0.155555
aF0.100382
aF0.062898
aF0.015187
aF0.734922
aF0.557749
aF0.255579
aF0.0
aF0.688605
aF0.641459
aF0.560752
aF0.600007
aF0.901923
aa(lp458
F0.501716
aF0.209336
aF0.192346
aF0.059021
aF0.509429
aF0.738888
aF0.0
aF0.758473
aF0.954281
aF0.943269
aF0.596345
aF0.118599
aF0.880476
aa(lp459
F0.428711
aF0.176164
aF0.408712
aF0.230629
aF0.486998
aF0.656301
aF0.634157
aF0.0
aF0.882604
aF0.968044
aF0.153149
aF0.272941
aF0.440125
aa(lp460
F0.025371
aF0.015428
aF0.018791
aF0.53232
aF0.465177
aF0.176385
aF0.0
aF0.71781
aF0.530145
aF0.033587
aF0.974684
aF0.946364
aF0.357607
aa(lp461
F0.155862
aF0.438022
aF0.116643
aF0.283182
aF0.54748
aF0.509259
aF0.0
aF0.351833
aF0.604246
aF0.831124
aF0.294733
aF0.834757
aF0.286264
aa(lp462
F0.172054
aF0.139832
aF0.025537
aF0.168085
aF0.567198
aF0.0
aF0.0
aF0.448741
aF0.690522
aF0.159304
aF0.624714
aF0.543176
aF0.294292
aa(lp463
F0.111789
aF0.183067
aF0.470672
aF0.285427
aF0.517834
aF0.906995
aF0.0
aF0.390748
aF0.75149
aF0.450362
aF0.775227
aF0.26433
aF0.759948
aa(lp464
F0.124541
aF0.206858
aF0.113217
aF0.236432
aF0.544404
aF0.403295
aF0.0
aF0.137119
aF0.912453
aF0.137673
aF0.949352
aF0.546479
aF0.393554
aa(lp465
F0.172715
aF0.208305
aF0.410001
aF0.119493
aF0.526192
aF0.706141
aF0.0
aF0.548934
aF0.762661
aF0.818655
aF0.955199
aF0.67088
aF0.861593
aa(lp466
F0.182563
aF0.198241
aF0.209317
aF0.071997
aF0.41969
aF0.829888
aF0.0
aF0.399322
aF0.684203
aF0.465754
aF0.740621
aF0.541538
aF0.523926
aa(lp467
F0.111544
aF0.209684
aF0.147273
aF0.210811
aF0.54731
aF0.273266
aF0.0
aF0.440864
aF0.901526
aF0.833876
aF0.936423
aF0.832197
aF0.776099
aa(lp468
F0.113798
aF0.692273
aF0.091162
aF0.013682
aF0.200025
aF0.413515
aF0.0
aF0.287007
aF0.787875
aF0.34967
aF0.932711
aF0.675839
aF0.57874
aa(lp469
F0.133712
aF0.47446
aF0.081213
aF0.248135
aF0.461602
aF0.810894
aF0.0
aF0.166788
aF0.967432
aF0.556161
aF0.483808
aF0.681217
aF0.459266
aa(lp470
F0.155766
aF0.597757
aF0.141886
aF0.014905
aF0.219629
aF0.60773
aF0.0
aF0.84639
aF0.249751
aF0.713177
aF0.966999
aF0.856119
aF0.897313
aa(lp471
F0.14629
aF0.555866
aF0.223399
aF0.128875
aF0.263876
aF0.795602
aF0.0
aF0.760099
aF0.936769
aF0.803489
aF0.339716
aF0.290689
aF0.616602
aa(lp472
F0.230133
aF0.478842
aF0.162623
aF0.009602
aF0.27172
aF0.090247
aF0.0
aF0.266816
aF0.358466
aF0.902542
aF0.818717
aF0.649811
aF0.848171
aa(lp473
F0.02819
aF0.181392
aF0.045012
aF0.023875
aF0.795003
aF0.747663
aF0.641705
aF0.0
aF0.613993
aF0.451042
aF0.770282
aF0.718384
aF0.400117
aa(lp474
F0.105334
aF0.494607
aF0.215971
aF0.256611
aF0.438517
aF0.719288
aF0.0
aF0.456405
aF0.82097
aF0.554886
aF0.461732
aF0.265961
aF0.777735
aa(lp475
F0.095839
aF0.171882
aF0.496097
aF0.163131
aF0.604608
aF0.532875
aF0.0
aF0.318185
aF0.663564
aF0.840278
aF0.817531
aF0.758533
aF0.77399
aa(lp476
F0.180907
aF0.502875
aF0.087757
aF0.454412
aF0.505345
aF0.60109
aF0.550222
aF0.0
aF0.290946
aF0.914114
aF0.734672
aF0.33959
aF0.867323
aa(lp477
F0.258375
aF0.060001
aF0.178481
aF0.170985
aF0.422567
aF0.243971
aF0.0
aF0.0
aF0.649251
aF0.507855
aF0.49143
aF0.554903
aF0.564264
aa(lp478
F0.040365
aF0.454273
aF0.008473
aF0.442579
aF0.158779
aF0.287733
aF0.082521
aF0.0
aF0.76247
aF0.940778
aF0.876781
aF0.578546
aF0.954823
aa(lp479
F0.148771
aF0.229335
aF0.18553
aF0.474508
aF0.222919
aF0.0
aF0.0
aF0.087876
aF0.881571
aF0.385594
aF0.748848
aF0.057955
aF0.36091
aa(lp480
F0.100128
aF0.117435
aF0.573602
aF0.177585
aF0.539378
aF0.526208
aF0.0
aF0.298935
aF0.518836
aF0.794732
aF0.757632
aF0.250258
aF0.879457
aa(lp481
F0.501716
aF0.209336
aF0.192346
aF0.059021
aF0.509429
aF0.738888
aF0.0
aF0.758473
aF0.954281
aF0.943269
aF0.596345
aF0.118599
aF0.880476
aa(lp482
F0.146685
aF0.199502
aF0.203915
aF0.121287
aF0.512162
aF0.651365
aF0.0
aF0.08684
aF0.92401
aF0.457655
aF0.968562
aF0.940286
aF0.769534
aa(lp483
F0.141223
aF0.154436
aF0.232186
aF0.174223
aF0.494788
aF0.223455
aF0.0
aF0.390266
aF0.324995
aF0.537009
aF0.371542
aF0.414393
aF0.419565
aa(lp484
F0.431384
aF0.202414
aF0.422221
aF0.151007
aF0.553084
aF0.575046
aF0.0
aF0.262679
aF0.806073
aF0.915732
aF0.977479
aF0.875877
aF0.792664
aa(lp485
F0.1133
aF0.64982
aF0.152778
aF0.303394
aF0.437337
aF0.472718
aF0.117917
aF0.0
aF0.294283
aF0.346718
aF0.5352
aF0.357767
aF0.559395
aa(lp486
F0.172807
aF0.519265
aF0.456795
aF0.15412
aF0.498794
aF0.726983
aF0.0
aF1.8e-05
aF0.81118
aF0.804217
aF0.700506
aF0.475355
aF0.705209
aa(lp487
F0.126711
aF0.084811
aF0.464107
aF0.548642
aF0.46602
aF0.167872
aF0.0
aF0.302853
aF0.796448
aF0.354271
aF0.537788
aF0.002163
aF0.868774
aa(lp488
F0.07743
aF0.5949
aF0.516347
aF0.201557
aF0.513057
aF0.410402
aF0.0
aF0.242309
aF0.888594
aF0.583995
aF0.875468
aF0.935789
aF0.723402
aa(lp489
F0.114985
aF0.161067
aF0.19176
aF0.282933
aF0.463789
aF0.488455
aF0.0
aF0.326768
aF0.917135
aF0.872506
aF0.75483
aF0.790356
aF0.840283
aa(lp490
F0.110295
aF0.110304
aF0.536924
aF0.153978
aF0.492363
aF0.657253
aF0.0
aF0.291623
aF0.520758
aF0.426768
aF0.705083
aF0.304374
aF0.849024
aa(lp491
F0.120098
aF0.153914
aF0.218197
aF0.611204
aF0.187302
aF0.648668
aF0.0
aF0.35996
aF0.290843
aF0.543513
aF0.613593
aF0.742906
aF0.553779
aa(lp492
F0.258375
aF0.060001
aF0.178481
aF0.170985
aF0.422567
aF0.243971
aF0.0
aF0.0
aF0.649251
aF0.507855
aF0.49143
aF0.554903
aF0.564264
aa(lp493
F0.449839
aF0.557944
aF0.11547
aF0.160938
aF0.486058
aF0.739271
aF0.0
aF0.017745
aF0.853148
aF0.823886
aF0.901069
aF0.975728
aF0.753058
aa(lp494
F0.128949
aF0.159283
aF0.090358
aF0.336142
aF0.521279
aF0.45697
aF0.0
aF0.470192
aF0.683529
aF0.618552
aF0.149717
aF0.026923
aF0.812217
aa(lp495
F0.107409
aF0.112624
aF0.158632
aF0.50775
aF0.494824
aF0.569759
aF0.0
aF0.719252
aF0.458011
aF0.485916
aF0.74523
aF0.304809
aF0.708203
aa(lp496
F0.122511
aF0.486276
aF0.441719
aF0.238748
aF0.433117
aF0.421504
aF0.0
aF0.703375
aF0.606553
aF0.012797
aF0.076093
aF0.014341
aF0.393155
aa(lp497
F0.143631
aF0.175835
aF0.148883
aF0.241007
aF0.511532
aF0.810279
aF0.0
aF0.810924
aF0.890542
aF0.26597
aF0.194338
aF0.12206
aF0.503678
aa(lp498
F0.127907
aF0.123778
aF0.145839
aF0.150653
aF0.552715
aF0.641102
aF0.0
aF0.015926
aF0.11052
aF0.520448
aF0.123626
aF0.056531
aF0.79932
aa(lp499
F0.077922
aF0.594949
aF0.515888
aF0.203301
aF0.509027
aF0.410402
aF0.0
aF0.242309
aF0.888594
aF0.583995
aF0.875468
aF0.935789
aF0.723402
aa(lp500
F0.101323
aF0.141355
aF0.067858
aF0.579641
aF0.561748
aF0.0
aF0.383102
aF0.0
aF0.760901
aF0.568554
aF0.757751
aF0.725909
aF0.157145
aa(lp501
F0.122762
aF0.216642
aF0.181816
aF0.204759
aF0.496162
aF0.087561
aF0.0
aF0.193691
aF0.509402
aF0.975601
aF0.45609
aF0.429037
aF0.873051
aa(lp502
F0.177092
aF0.148178
aF0.267586
aF0.058309
aF0.605736
aF0.708457
aF0.0
aF0.1055
aF0.785171
aF0.807078
aF0.835332
aF0.585397
aF0.812761
aa(lp503
F0.067614
aF0.187178
aF0.430556
aF0.433221
aF0.530202
aF0.708174
aF0.14867
aF0.0
aF0.729311
aF0.965615
aF0.780125
aF0.687031
aF0.888536
aa(lp504
F0.091697
aF0.150054
aF0.489351
aF0.132383
aF0.501157
aF0.549317
aF0.493172
aF0.0
aF0.782581
aF0.255817
aF0.638324
aF0.325528
aF0.672468
aa(lp505
F0.163085
aF0.320529
aF0.092932
aF0.10719
aF0.603492
aF0.836852
aF0.0
aF0.50589
aF0.980096
aF0.196948
aF0.926071
aF0.805865
aF0.633681
aa(lp506
F0.099735
aF0.155345
aF0.498394
aF0.09403
aF0.547375
aF0.70054
aF0.0
aF0.711295
aF0.887045
aF0.746845
aF0.212344
aF0.113346
aF0.693675
aa(lp507
F0.136835
aF0.107879
aF0.190806
aF0.196457
aF0.537663
aF0.772175
aF0.0
aF0.682387
aF0.956714
aF0.427821
aF0.504293
aF0.064727
aF0.856505
aa(lp508
F0.074516
aF0.561157
aF0.512635
aF0.16097
aF0.562513
aF0.574063
aF0.0
aF0.527933
aF0.317048
aF0.47437
aF0.510723
aF0.436347
aF0.849246
aa(lp509
F0.083094
aF0.147298
aF0.091203
aF0.555059
aF0.499564
aF0.119701
aF0.0
aF0.315931
aF0.3658
aF0.453747
aF0.212589
aF0.550632
aF0.290405
aa(lp510
F0.079697
aF0.445497
aF0.44285
aF0.184827
aF0.487402
aF0.39257
aF0.0
aF0.004925
aF0.868686
aF0.414115
aF0.93117
aF0.265413
aF0.786874
aa(lp511
F0.10203
aF0.394836
aF0.080864
aF0.236339
aF0.259632
aF0.376315
aF0.60167
aF0.0
aF0.713316
aF0.930188
aF0.785756
aF0.951195
aF0.878564
aa(lp512
F0.197333
aF0.211877
aF0.133071
aF0.173722
aF0.51765
aF0.258054
aF0.0
aF0.002239
aF0.568082
aF0.987501
aF0.796587
aF0.622226
aF0.95315
aa(lp513
F0.216356
aF0.094607
aF0.197803
aF0.138627
aF0.444157
aF0.596122
aF0.0
aF0.0
aF0.612276
aF0.553268
aF0.498572
aF0.588833
aF0.588931
aa(lp514
F0.084187
aF0.363677
aF0.112871
aF0.004244
aF0.587218
aF0.880662
aF0.0
aF0.305892
aF0.269793
aF0.247517
aF0.368729
aF0.085408
aF0.530051
aa(lp515
F0.154578
aF0.270404
aF0.472064
aF0.014883
aF0.226799
aF0.0
aF0.0
aF0.408642
aF0.484736
aF0.904271
aF0.930905
aF0.899038
aF0.812779
aa(lp516
F0.394535
aF0.514709
aF0.141962
aF0.190964
aF0.269938
aF0.404834
aF0.0
aF0.286652
aF0.67761
aF0.437593
aF0.93389
aF0.903037
aF0.78431
aa(lp517
F0.095839
aF0.171882
aF0.496097
aF0.163131
aF0.604608
aF0.532875
aF0.0
aF0.318185
aF0.663564
aF0.840278
aF0.817531
aF0.758533
aF0.77399
aa(lp518
F0.099931
aF0.602359
aF0.471696
aF0.162293
aF0.477293
aF0.188226
aF0.0
aF0.172415
aF0.708356
aF0.904661
aF0.857414
aF0.721814
aF0.778794
aa(lp519
F0.432002
aF0.495856
aF0.168573
aF0.148047
aF0.52135
aF0.457318
aF0.0
aF0.634141
aF0.562859
aF0.692917
aF0.640797
aF0.714039
aF0.721557
aa(lp520
F0.09911
aF0.202779
aF0.145767
aF0.206551
aF0.531014
aF0.594778
aF0.0
aF0.356526
aF0.6904
aF0.874559
aF0.963628
aF0.893819
aF0.83424
aa(lp521
F0.216356
aF0.094607
aF0.197803
aF0.138627
aF0.444157
aF0.596122
aF0.0
aF0.0
aF0.612276
aF0.553268
aF0.498572
aF0.588833
aF0.588931
aa(lp522
F0.122762
aF0.216642
aF0.181816
aF0.204759
aF0.496162
aF0.087561
aF0.0
aF0.193691
aF0.509402
aF0.975601
aF0.45609
aF0.429037
aF0.873051
aa(lp523
F0.154399
aF0.245688
aF0.175282
aF0.164693
aF0.488325
aF0.002825
aF0.0
aF0.0
aF0.302177
aF0.945433
aF0.817976
aF0.804809
aF0.827063
aa(lp524
F0.216356
aF0.094607
aF0.197803
aF0.138627
aF0.444157
aF0.596122
aF0.0
aF0.0
aF0.612276
aF0.553268
aF0.498572
aF0.588833
aF0.588931
aa(lp525
F0.131448
aF0.213543
aF0.11257
aF0.213175
aF0.535761
aF0.323046
aF0.0
aF0.492205
aF0.412567
aF0.821841
aF0.797888
aF0.581582
aF0.871737
aa(lp526
F0.136977
aF0.122232
aF0.215913
aF0.178989
aF0.527762
aF0.58179
aF0.29653
aF0.0
aF0.457547
aF0.936421
aF0.937303
aF0.836302
aF0.969392
aa(lp527
F0.475461
aF0.134686
aF0.118857
aF0.253048
aF0.447982
aF0.865661
aF0.0
aF0.709291
aF0.290758
aF0.461473
aF0.135211
aF0.04955
aF0.79582
aa(lp528
F0.091424
aF0.134236
aF0.179839
aF0.240781
aF0.544859
aF0.62113
aF0.0
aF0.0934
aF0.555583
aF0.645354
aF0.50911
aF0.431153
aF0.900875
aa(lp529
F0.085737
aF0.243469
aF0.176861
aF0.625492
aF0.561656
aF0.680048
aF0.0
aF0.181669
aF0.950269
aF0.888377
aF0.726516
aF0.66099
aF0.932222
aa(lp530
F0.147928
aF0.172608
aF0.080282
aF0.001849
aF0.724713
aF0.287617
aF0.537798
aF0.0
aF0.853022
aF0.587544
aF0.80031
aF0.547998
aF0.828303
aa(lp531
F0.09665
aF0.067605
aF0.479657
aF0.492622
aF0.52698
aF0.489482
aF0.0
aF0.480077
aF0.286142
aF0.421292
aF0.027547
aF0.156549
aF0.751483
aa(lp532
F0.109915
aF0.166427
aF0.573205
aF0.132081
aF0.65137
aF0.370872
aF0.0
aF0.153522
aF0.892261
aF0.916217
aF0.458042
aF0.549231
aF0.897388
aa(lp533
F0.104521
aF0.138392
aF0.125443
aF0.326313
aF0.491354
aF0.076639
aF0.0
aF0.64342
aF0.662062
aF0.926556
aF0.389885
aF0.248172
aF0.907157
aa(lp534
F0.501716
aF0.209336
aF0.192346
aF0.059021
aF0.509429
aF0.738888
aF0.0
aF0.758473
aF0.954281
aF0.943269
aF0.596345
aF0.118599
aF0.880476
aa(lp535
F0.109486
aF0.451293
aF0.223201
aF0.138901
aF0.484427
aF0.411918
aF0.0
aF0.005284
aF0.881695
aF0.533162
aF0.576215
aF0.387929
aF0.88417
aa(lp536
F0.131448
aF0.213543
aF0.11257
aF0.213175
aF0.535761
aF0.323046
aF0.0
aF0.492205
aF0.412567
aF0.821841
aF0.797888
aF0.581582
aF0.871737
aa(lp537
F0.161202
aF0.152219
aF0.231867
aF0.190734
aF0.503049
aF0.78491
aF0.0
aF0.507531
aF0.887165
aF0.671073
aF0.310326
aF0.115238
aF0.644521
aa(lp538
F0.285144
aF0.321631
aF0.208914
aF0.057455
aF0.227635
aF0.669845
aF0.0
aF0.0
aF0.792517
aF0.874939
aF0.67522
aF0.601164
aF0.833533
aa(lp539
F0.073263
aF0.093759
aF0.136211
aF0.185255
aF0.586065
aF0.275127
aF0.0
aF0.0
aF0.728101
aF0.16644
aF0.890203
aF0.875004
aF0.358515
aa(lp540
F0.126353
aF0.407972
aF0.519414
aF0.455045
aF0.53846
aF0.164645
aF0.0
aF0.512953
aF0.375562
aF0.736282
aF0.697254
aF0.177903
aF0.935554
aa(lp541
F0.303457
aF0.361425
aF0.258153
aF0.000909
aF0.232621
aF0.592565
aF0.0
aF0.497782
aF0.799616
aF0.843476
aF0.908043
aF0.773129
aF0.867104
aa(lp542
F0.118044
aF0.216867
aF0.115945
aF0.119719
aF0.563946
aF0.68072
aF0.0
aF0.671471
aF0.957059
aF0.851799
aF0.973556
aF0.740162
aF0.891089
aa(lp543
F0.152596
aF0.457663
aF0.144933
aF0.160027
aF0.50698
aF0.525486
aF0.0
aF0.426308
aF0.588143
aF0.596588
aF0.172666
aF0.747764
aF0.590038
aa(lp544
F0.106243
aF0.463352
aF0.416565
aF0.124528
aF0.560302
aF0.856297
aF0.25864
aF0.0
aF0.940032
aF0.928494
aF0.939063
aF0.697843
aF0.858144
aa(lp545
F0.479764
aF0.180133
aF0.139006
aF0.118957
aF0.56448
aF0.495059
aF0.0
aF0.747883
aF0.674134
aF0.493316
aF0.657266
aF0.356631
aF0.818468
aa(lp546
F0.097311
aF0.124403
aF0.151242
aF0.245311
aF0.501414
aF0.327625
aF0.0
aF0.045499
aF0.499326
aF0.739818
aF0.858091
aF0.69085
aF0.655647
aa(lp547
F0.062828
aF0.121617
aF0.61755
aF0.056042
aF0.22534
aF0.097629
aF0.0
aF0.642407
aF0.703447
aF0.09833
aF0.644835
aF0.944925
aF0.254749
aa(lp548
F0.131361
aF0.166232
aF0.110325
aF0.275088
aF0.500122
aF0.451733
aF0.0
aF0.070663
aF0.403978
aF0.459223
aF0.92166
aF0.770441
aF0.658122
aa(lp549
F0.129159
aF0.561943
aF0.332652
aF0.000939
aF0.140288
aF0.448524
aF0.0
aF0.741424
aF0.604268
aF0.839739
aF0.514192
aF0.468953
aF0.802335
aa(lp550
F0.125723
aF0.159091
aF0.432405
aF0.250742
aF0.527844
aF0.70461
aF0.0
aF0.602697
aF0.938819
aF0.679512
aF0.118738
aF0.286666
aF0.583178
aa(lp551
F0.437975
aF0.091906
aF0.201173
aF0.35163
aF0.252208
aF0.613766
aF0.0
aF0.46509
aF0.411737
aF0.47502
aF0.323192
aF0.016634
aF0.777166
aa(lp552
F0.124975
aF0.468135
aF0.1732
aF0.129111
aF0.543593
aF0.443554
aF0.0
aF0.210904
aF0.756376
aF0.961712
aF0.76274
aF0.58922
aF0.79208
aa(lp553
F0.134423
aF0.133066
aF0.483539
aF0.33618
aF0.506406
aF0.754822
aF0.0
aF0.74083
aF0.782426
aF0.116546
aF0.092754
aF0.039624
aF0.052086
aa(lp554
F0.071857
aF0.085493
aF0.159392
aF0.45746
aF0.486209
aF0.0
aF0.0
aF0.376307
aF0.110279
aF0.515097
aF0.408362
aF0.025495
aF0.666584
aa(lp555
F0.075484
aF0.168501
aF0.108831
aF0.524563
aF0.46872
aF0.008985
aF0.0
aF0.043881
aF0.21799
aF0.676616
aF0.504588
aF0.822692
aF0.484357
aa(lp556
F0.124044
aF0.098258
aF0.450315
aF0.453743
aF0.460286
aF0.699819
aF0.0
aF0.639204
aF0.894639
aF0.496535
aF0.475031
aF0.167605
aF0.697839
aa(lp557
F0.081735
aF0.2048
aF0.476114
aF0.475789
aF0.307524
aF0.285993
aF0.0
aF0.353913
aF0.589281
aF0.890958
aF0.88535
aF0.628256
aF0.860033
aa(lp558
F0.104535
aF0.107632
aF0.131659
aF0.504099
aF0.476809
aF0.849088
aF0.0
aF0.563804
aF0.848268
aF0.689183
aF0.264039
aF0.22503
aF0.702457
aa(lp559
F0.150044
aF0.410926
aF0.229242
aF0.086032
aF0.505985
aF0.695773
aF0.0
aF0.832629
aF0.793401
aF0.585234
aF0.470955
aF0.316494
aF0.613622
aa(lp560
F0.054908
aF0.063252
aF0.065829
aF0.566389
aF0.484494
aF0.532805
aF0.0
aF0.254072
aF0.440552
aF0.702023
aF0.930696
aF0.954748
aF0.580959
aa(lp561
F0.151145
aF0.144977
aF0.091015
aF0.004114
aF0.801327
aF0.081955
aF0.709964
aF0.0
aF0.501217
aF0.655176
aF0.699721
aF0.715409
aF0.658976
aa(lp562
F0.132128
aF0.135985
aF0.117467
aF0.214053
aF0.532117
aF0.380467
aF0.0
aF0.86184
aF0.636049
aF0.192435
aF0.283549
aF0.194715
aF0.244492
aa(lp563
F0.12194
aF0.136547
aF0.490033
aF0.321403
aF0.466447
aF0.236201
aF0.0
aF0.167868
aF0.779273
aF0.751426
aF0.951578
aF0.673851
aF0.795011
aa(lp564
F0.425374
aF0.132858
aF0.552002
aF0.12314
aF0.524176
aF0.338733
aF0.0
aF0.618784
aF0.937301
aF0.439292
aF0.691936
aF0.024654
aF0.258442
aa(lp565
F0.0573
aF0.446482
aF0.503644
aF0.002364
aF0.132627
aF0.147121
aF0.0
aF0.0
aF0.320495
aF0.059675
aF0.687421
aF0.559417
aF0.384185
aa(lp566
F0.09698
aF0.111487
aF0.481809
aF0.479361
aF0.505416
aF0.533025
aF0.0
aF0.499497
aF0.769243
aF0.61778
aF0.2016
aF0.17816
aF0.565452
aa(lp567
F0.08652
aF0.424519
aF0.181005
aF0.502449
aF0.499412
aF0.761782
aF0.0
aF0.678571
aF0.956535
aF0.286195
aF0.55393
aF0.330395
aF0.348068
aa(lp568
F0.113888
aF0.119068
aF0.104797
aF0.430405
aF0.50814
aF0.52152
aF0.001111
aF0.0
aF0.454427
aF0.691521
aF0.817861
aF0.762244
aF0.69254
aa(lp569
F0.131879
aF0.159232
aF0.133488
aF0.234442
aF0.531724
aF0.691977
aF0.0
aF0.615556
aF0.547028
aF0.9849
aF0.939843
aF0.826102
aF0.870856
aa(lp570
F0.161192
aF0.42242
aF0.534378
aF0.133244
aF0.523063
aF0.188506
aF0.0
aF0.786995
aF0.952237
aF0.585312
aF0.20487
aF0.15309
aF0.536632
aa(lp571
F0.216356
aF0.094607
aF0.197803
aF0.138627
aF0.444157
aF0.596122
aF0.0
aF0.0
aF0.612276
aF0.553268
aF0.498572
aF0.588833
aF0.588931
aa(lp572
F0.135054
aF0.436522
aF0.437341
aF0.215773
aF0.504325
aF0.787804
aF0.0
aF0.12924
aF0.863265
aF0.947214
aF0.952662
aF0.855082
aF0.892408
aa(lp573
F0.112683
aF0.422459
aF0.488348
aF0.516243
aF0.191801
aF0.0
aF0.0
aF0.0
aF0.600283
aF0.589349
aF0.604712
aF0.491676
aF0.930841
aa(lp574
F0.291372
aF0.415802
aF0.011176
aF0.008913
aF0.41368
aF0.667408
aF0.0
aF0.0
aF0.884091
aF0.872519
aF0.986591
aF0.663997
aF0.940978
aa(lp575
F0.09661
aF0.401334
aF0.12839
aF0.538646
aF0.524152
aF0.368191
aF0.0
aF0.47812
aF0.62108
aF0.268711
aF0.798276
aF0.538084
aF0.179797
aa(lp576
F0.139007
aF0.16269
aF0.490495
aF0.18173
aF0.497253
aF0.572431
aF0.0
aF0.746723
aF0.801343
aF0.30176
aF0.25677
aF0.079443
aF0.352169
aa(lp577
F0.109511
aF0.416926
aF0.156931
aF0.266475
aF0.552091
aF0.094724
aF0.132087
aF0.0
aF0.774507
aF0.404561
aF0.021102
aF0.371157
aF0.402813
aa(lp578
F0.285144
aF0.321631
aF0.208914
aF0.057455
aF0.227635
aF0.669845
aF0.0
aF0.0
aF0.792517
aF0.874939
aF0.67522
aF0.601164
aF0.833533
aa(lp579
F0.101864
aF0.466091
aF0.175614
aF0.212794
aF0.50778
aF0.783706
aF0.0
aF0.387305
aF0.648601
aF0.441136
aF0.714785
aF0.343694
aF0.743784
aa(lp580
F0.220184
aF0.19877
aF0.16742
aF0.006129
aF0.563969
aF0.312884
aF0.0
aF0.470609
aF0.653264
aF0.661564
aF0.561297
aF0.623655
aF0.858986
aa(lp581
F0.113798
aF0.692273
aF0.091162
aF0.013682
aF0.200025
aF0.413515
aF0.0
aF0.287007
aF0.787875
aF0.34967
aF0.932711
aF0.675839
aF0.57874
aa(lp582
F0.095578
aF0.119006
aF0.054676
aF0.481688
aF0.564957
aF0.0
aF0.611304
aF0.0
aF0.085325
aF0.839533
aF0.219033
aF0.667383
aF0.35281
aa(lp583
F0.130106
aF0.150044
aF0.155411
aF0.463023
aF0.494414
aF0.688273
aF0.0
aF0.742922
aF0.907715
aF0.207922
aF0.026324
aF0.0915
aF0.300763
aa(lp584
F0.083982
aF0.132334
aF0.124449
aF0.541196
aF0.474174
aF0.299868
aF0.0
aF0.636966
aF0.901471
aF0.558072
aF0.824936
aF0.703718
aF0.743264
aa(lp585
F0.220184
aF0.19877
aF0.16742
aF0.006129
aF0.563969
aF0.312884
aF0.0
aF0.470609
aF0.653264
aF0.661564
aF0.561297
aF0.623655
aF0.858986
aa(lp586
F0.190524
aF0.185271
aF0.398733
aF0.153475
aF0.510065
aF0.60397
aF0.0
aF0.703137
aF0.846915
aF0.529686
aF0.209213
aF0.50853
aF0.242852
aa(lp587
F0.118357
aF0.137288
aF0.186186
aF0.136016
aF0.547867
aF0.728854
aF0.0
aF0.666694
aF0.827261
aF0.583981
aF0.661812
aF0.257183
aF0.755134
aa(lp588
F0.083096
aF0.436331
aF0.399177
aF0.301124
aF0.277525
aF0.780788
aF0.0
aF0.751891
aF0.616409
aF0.42351
aF0.54626
aF0.445427
aF0.637698
aa(lp589
F0.266472
aF0.115091
aF0.224728
aF0.025109
aF0.520009
aF0.578989
aF0.0
aF0.593613
aF0.910643
aF0.931819
aF0.804802
aF0.760356
aF0.929338
aa(lp590
F0.157982
aF0.536871
aF0.148155
aF0.071554
aF0.502422
aF0.935258
aF0.0
aF0.54773
aF0.806945
aF0.885203
aF0.712705
aF0.7321
aF0.901517
aa(lp591
F0.096325
aF0.211022
aF0.666149
aF0.155014
aF0.491104
aF0.394948
aF0.300742
aF0.0
aF0.451108
aF0.608975
aF0.696168
aF0.326306
aF0.573707
aa(lp592
F0.073099
aF0.096824
aF0.465691
aF0.544744
aF0.541124
aF0.68387
aF0.0
aF0.901556
aF0.211192
aF0.845784
aF0.097933
aF0.556467
aF0.423213
aa(lp593
F0.184278
aF0.168884
aF0.178629
aF0.283641
aF0.440609
aF0.586123
aF0.0
aF0.20936
aF0.376983
aF0.95067
aF0.5907
aF0.761821
aF0.788892
aa(lp594
F0.258375
aF0.060001
aF0.178481
aF0.170985
aF0.422567
aF0.243971
aF0.0
aF0.0
aF0.649251
aF0.507855
aF0.49143
aF0.554903
aF0.564264
aa(lp595
F0.115201
aF0.14903
aF0.142629
aF0.292133
aF0.484388
aF0.517301
aF0.0
aF0.107054
aF0.510491
aF0.62501
aF0.588223
aF0.400104
aF0.735053
aa(lp596
F0.116272
aF0.142996
aF0.132528
aF0.504282
aF0.501578
aF0.785594
aF0.0
aF0.761449
aF0.900788
aF0.446436
aF0.382292
aF0.062011
aF0.598016
aa(lp597
F0.092866
aF0.130453
aF0.130988
aF0.19593
aF0.537766
aF0.203639
aF0.0
aF0.436805
aF0.732083
aF0.291186
aF0.677676
aF0.830062
aF0.190625
aa(lp598
F0.172304
aF0.569
aF0.079675
aF0.010119
aF0.340834
aF0.754451
aF0.0
aF0.312539
aF0.362944
aF0.891528
aF0.684367
aF0.355234
aF0.886276
aa(lp599
F0.098631
aF0.109666
aF0.166843
aF0.235591
aF0.546226
aF0.247353
aF0.0
aF0.240604
aF0.708378
aF0.476633
aF0.452877
aF0.517449
aF0.63826
aa(lp600
F0.216356
aF0.094607
aF0.197803
aF0.138627
aF0.444157
aF0.596122
aF0.0
aF0.0
aF0.612276
aF0.553268
aF0.498572
aF0.588833
aF0.588931
aa(lp601
F0.105862
aF0.10734
aF0.151436
aF0.18548
aF0.519597
aF0.32694
aF0.0
aF0.0
aF0.463326
aF0.783557
aF0.759065
aF0.674382
aF0.663216
aa(lp602
F0.122119
aF0.192258
aF0.139514
aF0.112085
aF0.533305
aF0.095475
aF0.0
aF0.407538
aF0.888863
aF0.866098
aF0.916639
aF0.890641
aF0.951973
aa(lp603
F0.115905
aF0.192107
aF0.082381
aF0.063982
aF0.662866
aF0.638987
aF0.0
aF0.081198
aF0.613495
aF0.723904
aF0.935179
aF0.973762
aF0.664046
aa(lp604
F0.02819
aF0.181392
aF0.045012
aF0.023875
aF0.795003
aF0.747663
aF0.641705
aF0.0
aF0.613993
aF0.451042
aF0.770282
aF0.718384
aF0.400117
aa(lp605
F0.154578
aF0.270404
aF0.472064
aF0.014883
aF0.226799
aF0.0
aF0.0
aF0.408642
aF0.484736
aF0.904271
aF0.930905
aF0.899038
aF0.812779
aa(lp606
F0.133693
aF0.146198
aF0.146046
aF0.285809
aF0.484782
aF0.729198
aF0.0
aF0.509134
aF0.303964
aF0.461346
aF0.50526
aF0.141619
aF0.812455
aa(lp607
F0.153218
aF0.506162
aF0.496717
aF0.146098
aF0.486152
aF0.475023
aF0.0
aF0.705638
aF0.512323
aF0.64745
aF0.620695
aF0.766027
aF0.589465
aa(lp608
F0.124227
aF0.137731
aF0.142649
aF0.257554
aF0.503049
aF0.0
aF0.342924
aF0.0
aF0.396431
aF0.843656
aF0.863809
aF0.894311
aF0.806482
aa(lp609
F0.070075
aF0.138527
aF0.614382
aF0.234182
aF0.551281
aF0.024452
aF0.0
aF0.0
aF0.717774
aF0.315945
aF0.82878
aF0.860883
aF0.636725
aa(lp610
F0.12676
aF0.108251
aF0.159431
aF0.493798
aF0.528299
aF0.461496
aF0.0
aF0.868535
aF0.524523
aF0.529327
aF0.186478
aF0.005319
aF0.830682
aa(lp611
F0.07215
aF0.126513
aF0.111786
aF0.538889
aF0.489694
aF0.00645
aF0.0
aF0.433156
aF0.718526
aF0.926227
aF0.772378
aF0.368502
aF0.8181
aa(lp612
F0.139428
aF0.437223
aF0.206525
aF0.164583
aF0.536074
aF0.59894
aF0.0
aF0.567938
aF0.820839
aF0.834101
aF0.838083
aF0.553267
aF0.851478
aa(lp613
F0.124555
aF0.134569
aF0.181182
aF0.246956
aF0.527244
aF0.607675
aF0.0
aF0.525745
aF0.626246
aF0.83753
aF0.831653
aF0.726233
aF0.958427
aa(lp614
F0.391796
aF0.14702
aF0.187777
aF0.237843
aF0.359073
aF0.764165
aF0.0
aF0.637078
aF0.972964
aF0.668778
aF0.38153
aF0.105134
aF0.70238
aa(lp615
F0.148401
aF0.448263
aF0.217577
aF0.0495
aF0.604119
aF0.369748
aF0.0
aF0.720805
aF0.738538
aF0.075155
aF0.530115
aF0.188955
aF0.299429
aa(lp616
F0.087323
aF0.050556
aF0.141499
aF0.540061
aF0.486688
aF0.644658
aF0.0
aF0.792704
aF0.672927
aF0.252979
aF0.030318
aF0.040795
aF0.445521
aa(lp617
F0.099496
aF0.159157
aF0.179778
aF0.359994
aF0.284194
aF0.695249
aF0.0
aF0.405177
aF0.968549
aF0.281207
aF0.433834
aF0.217014
aF0.540729
aa(lp618
F0.116993
aF0.190258
aF0.197993
aF0.27693
aF0.507085
aF0.694173
aF0.0
aF0.767544
aF0.941146
aF0.18215
aF0.196516
aF0.020142
aF0.304447
aa(lp619
F0.116713
aF0.126116
aF0.08948
aF0.477503
aF0.488786
aF0.0
aF0.0
aF0.645089
aF0.200811
aF0.670709
aF0.644296
aF0.709837
aF0.854155
aa(lp620
F0.073269
aF0.108473
aF0.059239
aF0.498246
aF0.565423
aF0.626765
aF0.0
aF0.0
aF0.171592
aF0.484339
aF0.721254
aF0.833583
aF0.62317
aa(lp621
F0.099648
aF0.476536
aF0.096045
aF0.148852
aF0.501015
aF0.2662
aF0.0
aF0.593613
aF0.615698
aF0.417588
aF0.486979
aF0.209704
aF0.677735
aa(lp622
F0.428697
aF0.514616
aF0.158407
aF0.467971
aF0.487708
aF0.520298
aF0.0
aF0.186373
aF0.715946
aF0.980235
aF0.895418
aF0.766822
aF0.922834
aa(lp623
F0.144096
aF0.160844
aF0.488109
aF0.245825
aF0.490181
aF0.24384
aF0.0
aF0.720036
aF0.598476
aF0.22875
aF0.214965
aF0.486228
aF0.615416
aa(lp624
F0.409493
aF0.117701
aF0.137571
aF0.274
aF0.484033
aF0.479177
aF0.0
aF0.552049
aF0.160665
aF0.894285
aF0.660966
aF0.376749
aF0.978539
aa(lp625
F0.119307
aF0.130909
aF0.43677
aF0.310375
aF0.515744
aF0.294666
aF0.0
aF0.542886
aF0.291798
aF0.48064
aF0.442513
aF0.946538
aF0.374793
aa(lp626
F0.092235
aF0.6822
aF0.237466
aF0.005077
aF0.092556
aF0.626827
aF0.546766
aF0.0
aF0.858738
aF0.719554
aF0.988541
aF0.917607
aF0.839968
aa(lp627
F0.108327
aF0.135142
aF0.4526
aF0.158666
aF0.56471
aF0.080162
aF0.0
aF0.0
aF0.396535
aF0.734159
aF0.591256
aF0.619356
aF0.650316
aa(lp628
F0.148826
aF0.212314
aF0.241225
aF0.059421
aF0.547438
aF0.0
aF0.290382
aF0.0
aF0.486319
aF0.89218
aF0.71782
aF0.63208
aF0.701929
aa(lp629
F0.182822
aF0.242809
aF0.150845
aF0.179973
aF0.531791
aF0.170347
aF0.0
aF0.579665
aF0.644558
aF0.572861
aF0.895533
aF0.463226
aF0.726661
aa(lp630
F0.088942
aF0.151665
aF0.167688
aF0.161697
aF0.572508
aF0.405753
aF0.0
aF0.324619
aF0.455862
aF0.668301
aF0.018751
aF0.479223
aF0.414232
aa(lp631
F0.158144
aF0.254042
aF0.236985
aF0.158915
aF0.298204
aF0.616973
aF0.0
aF0.506915
aF0.598195
aF0.962773
aF0.718422
aF0.543143
aF0.944326
aa(lp632
F0.087935
aF0.135317
aF0.421026
aF0.485206
aF0.57227
aF0.481232
aF0.0
aF0.659158
aF0.808511
aF0.329128
aF0.284833
aF0.0319
aF0.510798
aa(lp633
F0.139514
aF0.195404
aF0.168399
aF0.500692
aF0.521358
aF0.836966
aF0.0
aF0.645089
aF0.654438
aF0.816653
aF0.327856
aF0.651435
aF0.662688
aa(lp634
F0.12376
aF0.45071
aF0.244102
aF0.151583
aF0.492521
aF0.744254
aF0.0
aF0.529246
aF0.940516
aF0.317815
aF0.189249
aF0.048723
aF0.503845
aa(lp635
F0.387359
aF0.134464
aF0.137894
aF0.501061
aF0.437394
aF0.209211
aF0.0
aF0.144537
aF0.699822
aF0.468434
aF0.937309
aF0.187727
aF0.797484
aa(lp636
F0.108313
aF0.161969
aF0.429992
aF0.202888
aF0.460649
aF0.72977
aF0.0
aF0.3463
aF0.84593
aF0.267754
aF0.252891
aF0.216839
aF0.50853
aa(lp637
F0.154677
aF0.412235
aF0.144477
aF0.483766
aF0.461348
aF0.884181
aF0.0
aF0.762676
aF0.857217
aF0.825653
aF0.196813
aF0.729979
aF0.351161
aa(lp638
F0.137778
aF0.366629
aF0.258246
aF0.008644
aF0.364359
aF0.551743
aF0.0
aF0.24841
aF0.684281
aF0.760341
aF0.96003
aF0.762026
aF0.956533
aa(lp639
F0.121408
aF0.080881
aF0.420539
aF0.569783
aF0.645004
aF0.0
aF0.0
aF0.680556
aF0.613625
aF0.30962
aF0.853466
aF0.302999
aF0.595977
aa(lp640
F0.102427
aF0.156902
aF0.096549
aF0.281928
aF0.493178
aF0.648619
aF0.0
aF0.242754
aF0.777023
aF0.691052
aF0.583506
aF0.976559
aF0.426086
aa(lp641
F0.103611
aF0.111364
aF0.131938
aF0.525157
aF0.48939
aF0.229952
aF0.0
aF0.317029
aF0.906451
aF0.740102
aF0.655728
aF0.032479
aF0.675822
aa(lp642
F0.121276
aF0.140297
aF0.410974
aF0.183514
aF0.523234
aF0.669822
aF0.0
aF0.729698
aF0.650147
aF0.252847
aF0.107715
aF0.114745
aF0.650736
aa(lp643
F0.216088
aF0.252857
aF0.227821
aF0.10086
aF0.332254
aF0.833103
aF0.0
aF0.513081
aF0.808088
aF0.007736
aF0.622147
aF0.327573
aF0.138863
aa(lp644
F0.128989
aF0.456783
aF0.458972
aF0.104376
aF0.359418
aF0.092581
aF0.0
aF0.016895
aF0.854991
aF0.464704
aF0.858245
aF0.720421
aF0.776289
aa(lp645
F0.095672
aF0.460581
aF0.156623
aF0.153888
aF0.558237
aF0.727649
aF0.0
aF0.527933
aF0.368862
aF0.789402
aF0.69911
aF0.301664
aF0.576935
aa(lp646
F0.213664
aF0.457269
aF0.076019
aF0.181388
aF0.517736
aF0.651884
aF0.0
aF0.800805
aF0.904192
aF0.473682
aF0.642398
aF0.734149
aF0.128419
aa(lp647
F0.21894
aF0.449939
aF0.220939
aF0.008708
aF0.224848
aF0.181349
aF0.294459
aF0.0
aF0.727181
aF0.390992
aF0.676834
aF0.133563
aF0.448112
aa(lp648
F0.139332
aF0.160509
aF0.216147
aF0.214095
aF0.491198
aF0.864888
aF0.0
aF0.485929
aF0.856578
aF0.7434
aF0.272131
aF0.103353
aF0.888094
aa(lp649
F0.469643
aF0.109664
aF0.565091
aF0.198595
aF0.555245
aF0.461524
aF0.0
aF0.804677
aF0.580478
aF0.45871
aF0.187666
aF0.777245
aF0.174701
aa(lp650
F0.467481
aF0.262294
aF0.357325
aF0.001003
aF0.081516
aF0.028362
aF0.0
aF0.803444
aF0.276123
aF0.866638
aF0.732875
aF0.562888
aF0.703876
aa(lp651
F0.094433
aF0.156107
aF0.107235
aF0.260524
aF0.503996
aF0.606882
aF0.462854
aF0.0
aF0.452508
aF0.496608
aF0.784054
aF0.518408
aF0.485236
aa(lp652
F0.216356
aF0.094607
aF0.197803
aF0.138627
aF0.444157
aF0.596122
aF0.0
aF0.0
aF0.612276
aF0.553268
aF0.498572
aF0.588833
aF0.588931
aa(lp653
F0.124941
aF0.11405
aF0.419274
aF0.334497
aF0.512138
aF0.07532
aF0.0
aF0.218763
aF0.759411
aF0.645077
aF0.250585
aF0.120806
aF0.410082
aa(lp654
F0.098999
aF0.183423
aF0.132561
aF0.540116
aF0.477533
aF0.706234
aF0.0
aF0.835657
aF0.819273
aF0.103948
aF0.592712
aF0.836669
aF0.216793
aa(lp655
F0.231306
aF0.528035
aF0.198973
aF0.007466
aF0.214692
aF0.646967
aF0.587152
aF0.0
aF0.657964
aF0.128975
aF0.380197
aF0.184812
aF0.385906
aa(lp656
F0.055052
aF0.092327
aF0.093651
aF0.576015
aF0.439281
aF0.0
aF0.544954
aF0.0
aF0.118238
aF0.136519
aF0.459197
aF0.599171
aF0.078892
aa(lp657
F0.055052
aF0.092327
aF0.093651
aF0.576015
aF0.439281
aF0.0
aF0.544954
aF0.0
aF0.118238
aF0.136519
aF0.459197
aF0.599171
aF0.078892
aa(lp658
F0.035899
aF0.072446
aF0.550014
aF0.50541
aF0.511532
aF0.0
aF0.0
aF0.497209
aF0.036052
aF0.258096
aF0.402457
aF0.906105
aF0.217004
aa(lp659
F0.035899
aF0.072446
aF0.550014
aF0.50541
aF0.511532
aF0.0
aF0.0
aF0.497209
aF0.036052
aF0.258096
aF0.402457
aF0.906105
aF0.217004
aa(lp660
F0.055052
aF0.092327
aF0.093651
aF0.576015
aF0.439281
aF0.0
aF0.544954
aF0.0
aF0.118238
aF0.136519
aF0.459197
aF0.599171
aF0.078892
aa(lp661
F0.096822
aF0.107698
aF0.105083
aF0.300373
aF0.503928
aF0.136455
aF0.0
aF0.0
aF0.067217
aF0.015823
aF0.242783
aF0.590628
aF0.024468
aa(lp662
F0.588594
aF0.158128
aF0.462682
aF0.261255
aF0.560925
aF0.20393
aF0.0
aF0.575942
aF0.462034
aF0.560855
aF0.844575
aF0.819959
aF0.715838
aa(lp663
F0.131649
aF0.462969
aF0.10891
aF0.222898
aF0.526638
aF0.427448
aF0.0
aF0.060576
aF0.597397
aF0.823381
aF0.864165
aF0.491974
aF0.900948
aa(lp664
F0.129271
aF0.399376
aF0.535256
aF0.155588
aF0.519821
aF0.547411
aF0.0
aF0.327106
aF0.67565
aF0.930496
aF0.815347
aF0.72894
aF0.828125
aa(lp665
F0.174321
aF0.481672
aF0.446814
aF0.076978
aF0.50596
aF0.638362
aF0.0
aF0.701813
aF0.752084
aF0.946196
aF0.917147
aF0.692775
aF0.92834
aa(lp666
F0.507731
aF0.166287
aF0.466729
aF0.241026
aF0.236993
aF0.648474
aF0.0
aF0.665537
aF0.844591
aF0.578258
aF0.844936
aF0.127465
aF0.765279
aa(lp667
F0.122137
aF0.161105
aF0.17341
aF0.189395
aF0.516316
aF0.461872
aF0.0
aF0.028818
aF0.876404
aF0.40809
aF0.841654
aF0.364693
aF0.665081
aa(lp668
F0.116161
aF0.485814
aF0.470296
aF0.142514
aF0.499126
aF0.675921
aF0.0
aF0.805103
aF0.545885
aF0.717137
aF0.395493
aF0.116629
aF0.720329
aa(lp669
F0.11168
aF0.573277
aF0.487431
aF0.190122
aF0.512456
aF0.572806
aF0.0
aF0.447469
aF0.864328
aF0.569688
aF0.578307
aF0.58974
aF0.678167
aa(lp670
F0.19961
aF0.169235
aF0.416308
aF0.154591
aF0.564343
aF0.632974
aF0.0
aF0.358583
aF0.601699
aF0.702902
aF0.902232
aF0.452637
aF0.863234
aa(lp671
F0.198074
aF0.120697
aF0.472514
aF0.056461
aF0.591669
aF0.737734
aF0.0
aF0.797268
aF0.805985
aF0.391965
aF0.291861
aF0.555623
aF0.319715
aa(lp672
F0.151301
aF0.118341
aF0.40644
aF0.54049
aF0.530674
aF0.612312
aF0.0
aF0.763147
aF0.826363
aF0.601368
aF0.383075
aF0.148507
aF0.729164
aa(lp673
F0.444304
aF0.141679
aF0.551635
aF0.169821
aF0.521326
aF0.44906
aF0.0
aF0.646162
aF0.86423
aF0.026659
aF0.256386
aF0.258509
aF0.4387
aa(lp674
F0.105796
aF0.147004
aF0.154144
aF0.224287
aF0.557631
aF0.342977
aF0.0
aF0.68606
aF0.622368
aF0.311513
aF0.749947
aF0.48576
aF0.78846
aa(lp675
F0.138693
aF0.142668
aF0.16454
aF0.274937
aF0.508232
aF0.699202
aF0.0
aF0.450085
aF0.961393
aF0.225453
aF0.750966
aF0.401209
aF0.340035
aa(lp676
F0.100666
aF0.511758
aF0.098551
aF0.521907
aF0.523422
aF0.542063
aF0.0
aF0.330201
aF0.899371
aF0.075365
aF0.861663
aF0.576543
aF0.482377
aa(lp677
F0.115769
aF0.167665
aF0.118966
aF0.188846
aF0.546434
aF0.243971
aF0.0
aF0.547641
aF0.477804
aF0.718554
aF0.843135
aF0.373584
aF0.948318
aa(lp678
F0.091305
aF0.134683
aF0.570548
aF0.239974
aF0.495796
aF0.528465
aF0.0
aF0.167958
aF0.910639
aF0.235039
aF0.595378
aF0.250511
aF0.39158
aa(lp679
F0.139213
aF0.132873
aF0.189238
aF0.229175
aF0.516401
aF0.562362
aF0.0
aF0.372053
aF0.956865
aF0.107605
aF0.621432
aF0.329582
aF0.424779
aa(lp680
F0.174321
aF0.481672
aF0.446814
aF0.076978
aF0.50596
aF0.638362
aF0.0
aF0.701813
aF0.752084
aF0.946196
aF0.917147
aF0.692775
aF0.92834
aa(lp681
F0.105369
aF0.472158
aF0.445627
aF0.096842
aF0.541025
aF0.40414
aF0.0
aF0.76777
aF0.887685
aF0.818416
aF0.504174
aF0.404008
aF0.771335
aa(lp682
F0.127749
aF0.462572
aF0.233719
aF0.112423
aF0.540316
aF0.747663
aF0.0
aF0.142636
aF0.911595
aF0.909951
aF0.80262
aF0.505995
aF0.823741
aa(lp683
F0.110012
aF0.107963
aF0.448125
aF0.445879
aF0.521994
aF0.568485
aF0.0
aF0.177428
aF0.943112
aF0.886485
aF0.609109
aF0.811335
aF0.77945
aa(lp684
F0.099247
aF0.47058
aF0.540228
aF0.179879
aF0.551593
aF0.424814
aF0.0
aF0.306823
aF0.937678
aF0.636348
aF0.858926
aF0.91489
aF0.66469
aa(lp685
F0.081852
aF0.141385
aF0.128583
aF0.682261
aF0.044751
aF8e-06
aF0.0
aF0.0
aF0.170779
aF0.094687
aF0.536697
aF0.159678
aF0.67855
aa(lp686
F0.496156
aF0.406972
aF0.145341
aF0.214976
aF0.561876
aF0.46932
aF0.0
aF0.471307
aF0.67665
aF0.789521
aF0.751099
aF0.39034
aF0.744033
aa(lp687
F0.099247
aF0.47058
aF0.540228
aF0.179879
aF0.551593
aF0.424814
aF0.0
aF0.306823
aF0.937678
aF0.636348
aF0.858926
aF0.91489
aF0.66469
aa(lp688
F0.122683
aF0.466553
aF0.18935
aF0.109585
aF0.5258
aF0.480972
aF0.0
aF0.193569
aF0.708367
aF0.954274
aF0.918138
aF0.770796
aF0.912837
aa(lp689
F0.155793
aF0.462473
aF0.149629
aF0.225641
aF0.494732
aF0.593437
aF0.0
aF0.671382
aF0.685348
aF0.346544
aF0.438636
aF0.356932
aF0.569081
aa(lp690
F0.198074
aF0.120697
aF0.472514
aF0.056461
aF0.591669
aF0.737734
aF0.0
aF0.797268
aF0.805985
aF0.391965
aF0.291861
aF0.555623
aF0.319715
aa(lp691
F0.151301
aF0.118341
aF0.40644
aF0.54049
aF0.530674
aF0.612312
aF0.0
aF0.763147
aF0.826363
aF0.601368
aF0.383075
aF0.148507
aF0.729164
aa(lp692
F0.487132
aF0.421038
aF0.1537
aF0.236567
aF0.537541
aF0.01423
aF0.001301
aF0.0
aF0.770185
aF0.589879
aF0.915492
aF0.854632
aF0.620958
aa(lp693
F0.460021
aF0.455673
aF0.189299
aF0.099522
aF0.565105
aF0.516673
aF0.0
aF0.230763
aF0.668911
aF0.875018
aF0.380649
aF0.694894
aF0.668996
aa(lp694
F0.198074
aF0.120697
aF0.472514
aF0.056461
aF0.591669
aF0.737734
aF0.0
aF0.797268
aF0.805985
aF0.391965
aF0.291861
aF0.555623
aF0.319715
aa(lp695
F0.145179
aF0.455133
aF0.448443
aF0.177849
aF0.473028
aF0.656868
aF0.0
aF0.591555
aF0.472202
aF0.815235
aF0.533548
aF0.175803
aF0.833701
aa(lp696
F0.188975
aF0.174713
aF0.148307
aF0.130097
aF0.538651
aF0.755291
aF0.0
aF0.688899
aF0.847149
aF0.927378
aF0.913041
aF0.612555
aF0.894817
aa(lp697
F0.116161
aF0.485814
aF0.470296
aF0.142514
aF0.499126
aF0.675921
aF0.0
aF0.805103
aF0.545885
aF0.717137
aF0.395493
aF0.116629
aF0.720329
aa(lp698
F0.112606
aF0.118898
aF0.41984
aF0.217789
aF0.586395
aF0.362103
aF0.0
aF0.580881
aF0.620855
aF0.760282
aF0.451668
aF0.298602
aF0.965202
aa(lp699
F0.131649
aF0.462969
aF0.10891
aF0.222898
aF0.526638
aF0.427448
aF0.0
aF0.060576
aF0.597397
aF0.823381
aF0.864165
aF0.491974
aF0.900948
aa(lp700
F0.460021
aF0.455673
aF0.189299
aF0.099522
aF0.565105
aF0.516673
aF0.0
aF0.230763
aF0.668911
aF0.875018
aF0.380649
aF0.694894
aF0.668996
aa(lp701
F0.112251
aF0.443893
aF0.1058
aF0.244804
aF0.56638
aF0.698578
aF0.0
aF0.154556
aF0.840457
aF0.398025
aF0.897251
aF0.950322
aF0.669601
aa(lp702
F0.117396
aF0.128081
aF0.166293
aF0.257741
aF0.510485
aF0.476551
aF0.0
aF0.330584
aF0.898384
aF0.311869
aF0.428266
aF0.159433
aF0.294003
aa(lp703
F0.142808
aF0.203141
aF0.436629
aF0.153939
aF0.509365
aF0.644018
aF0.0
aF0.619854
aF0.834721
aF0.607228
aF0.710811
aF0.501952
aF0.735906
aa(lp704
F0.093172
aF0.483645
aF0.130945
aF0.510303
aF0.274026
aF0.074614
aF0.0
aF0.045403
aF0.942349
aF0.076055
aF0.761836
aF0.509056
aF0.269985
aa(lp705
F0.14478
aF0.187372
aF0.121843
aF0.246455
aF0.522792
aF0.475365
aF0.0
aF0.455654
aF0.926501
aF0.153731
aF0.508888
aF0.514897
aF0.224894
aa(lp706
F0.165629
aF0.448102
aF0.429877
aF0.093663
aF0.510741
aF0.639433
aF0.0
aF0.270639
aF0.901202
aF0.798473
aF0.824802
aF0.318712
aF0.838112
aa(lp707
F0.460021
aF0.455673
aF0.189299
aF0.099522
aF0.565105
aF0.516673
aF0.0
aF0.230763
aF0.668911
aF0.875018
aF0.380649
aF0.694894
aF0.668996
aa(lp708
F0.159658
aF0.196968
aF0.154748
aF0.148979
aF0.518
aF0.736013
aF0.0
aF0.632877
aF0.714284
aF0.912604
aF0.889325
aF0.371144
aF0.954027
aa(lp709
F0.131649
aF0.462969
aF0.10891
aF0.222898
aF0.526638
aF0.427448
aF0.0
aF0.060576
aF0.597397
aF0.823381
aF0.864165
aF0.491974
aF0.900948
aa(lp710
F0.105364
aF0.592659
aF0.492025
aF0.131673
aF0.507586
aF0.238553
aF0.0
aF0.404471
aF0.48222
aF0.598728
aF0.650878
aF0.317556
aF0.823241
aa(lp711
F0.110012
aF0.107963
aF0.448125
aF0.445879
aF0.521994
aF0.568485
aF0.0
aF0.177428
aF0.943112
aF0.886485
aF0.609109
aF0.811335
aF0.77945
aa(lp712
F0.174321
aF0.481672
aF0.446814
aF0.076978
aF0.50596
aF0.638362
aF0.0
aF0.701813
aF0.752084
aF0.946196
aF0.917147
aF0.692775
aF0.92834
aa(lp713
F0.142646
aF0.451206
aF0.146589
aF0.178849
aF0.514317
aF0.602703
aF0.0
aF0.69843
aF0.703341
aF0.330215
aF0.594891
aF0.154416
aF0.5879
aa(lp714
F0.105364
aF0.592659
aF0.492025
aF0.131673
aF0.507586
aF0.238553
aF0.0
aF0.404471
aF0.48222
aF0.598728
aF0.650878
aF0.317556
aF0.823241
aa(lp715
F0.111205
aF0.452369
aF0.17669
aF0.159407
aF0.503892
aF0.269203
aF0.0
aF0.558282
aF0.532196
aF0.116528
aF0.160008
aF0.029158
aF0.673679
aa(lp716
F0.151702
aF0.424008
aF0.128756
aF0.126451
aF0.584611
aF0.562056
aF0.0
aF0.366233
aF0.707348
aF0.933148
aF0.958563
aF0.752011
aF0.930165
aa(lp717
F0.122683
aF0.466553
aF0.18935
aF0.109585
aF0.5258
aF0.480972
aF0.0
aF0.193569
aF0.708367
aF0.954274
aF0.918138
aF0.770796
aF0.912837
aa(lp718
F0.173167
aF0.434136
aF0.17671
aF0.15702
aF0.52235
aF0.411382
aF0.0
aF0.017097
aF0.599787
aF0.89028
aF0.565971
aF0.674267
aF0.783919
aa(lp719
F0.11168
aF0.573277
aF0.487431
aF0.190122
aF0.512456
aF0.572806
aF0.0
aF0.447469
aF0.864328
aF0.569688
aF0.578307
aF0.58974
aF0.678167
aa(lp720
F0.173167
aF0.434136
aF0.17671
aF0.15702
aF0.52235
aF0.411382
aF0.0
aF0.017097
aF0.599787
aF0.89028
aF0.565971
aF0.674267
aF0.783919
aa(lp721
F0.198074
aF0.120697
aF0.472514
aF0.056461
aF0.591669
aF0.737734
aF0.0
aF0.797268
aF0.805985
aF0.391965
aF0.291861
aF0.555623
aF0.319715
aa(lp722
F0.105369
aF0.472158
aF0.445627
aF0.096842
aF0.541025
aF0.40414
aF0.0
aF0.76777
aF0.887685
aF0.818416
aF0.504174
aF0.404008
aF0.771335
aa(lp723
F0.099247
aF0.47058
aF0.540228
aF0.179879
aF0.551593
aF0.424814
aF0.0
aF0.306823
aF0.937678
aF0.636348
aF0.858926
aF0.91489
aF0.66469
aa(lp724
F0.089834
aF0.559119
aF0.603511
aF0.199875
aF0.593479
aF0.127134
aF0.0
aF0.021521
aF0.62417
aF0.3798
aF0.749374
aF0.875916
aF0.507689
aa(lp725
F0.145179
aF0.455133
aF0.448443
aF0.177849
aF0.473028
aF0.656868
aF0.0
aF0.591555
aF0.472202
aF0.815235
aF0.533548
aF0.175803
aF0.833701
aa(lp726
F0.105364
aF0.592659
aF0.492025
aF0.131673
aF0.507586
aF0.238553
aF0.0
aF0.404471
aF0.48222
aF0.598728
aF0.650878
aF0.317556
aF0.823241
aa(lp727
F0.122683
aF0.466553
aF0.18935
aF0.109585
aF0.5258
aF0.480972
aF0.0
aF0.193569
aF0.708367
aF0.954274
aF0.918138
aF0.770796
aF0.912837
aa(lp728
F0.129271
aF0.399376
aF0.535256
aF0.155588
aF0.519821
aF0.547411
aF0.0
aF0.327106
aF0.67565
aF0.930496
aF0.815347
aF0.72894
aF0.828125
aa(lp729
F0.11168
aF0.573277
aF0.487431
aF0.190122
aF0.512456
aF0.572806
aF0.0
aF0.447469
aF0.864328
aF0.569688
aF0.578307
aF0.58974
aF0.678167
aa(lp730
F0.099018
aF0.178512
aF0.40155
aF0.278471
aF0.522456
aF0.40591
aF0.0
aF0.175282
aF0.978938
aF0.686232
aF0.933138
aF0.129163
aF0.628967
aa(lp731
F0.139191
aF0.462524
aF0.449446
aF0.217479
aF0.497689
aF0.616787
aF0.0
aF0.143711
aF0.884017
aF0.933775
aF0.919447
aF0.423143
aF0.871601
aa(lp732
F0.129271
aF0.399376
aF0.535256
aF0.155588
aF0.519821
aF0.547411
aF0.0
aF0.327106
aF0.67565
aF0.930496
aF0.815347
aF0.72894
aF0.828125
aa(lp733
F0.089834
aF0.559119
aF0.603511
aF0.199875
aF0.593479
aF0.127134
aF0.0
aF0.021521
aF0.62417
aF0.3798
aF0.749374
aF0.875916
aF0.507689
aa(lp734
F0.089834
aF0.559119
aF0.603511
aF0.199875
aF0.593479
aF0.127134
aF0.0
aF0.021521
aF0.62417
aF0.3798
aF0.749374
aF0.875916
aF0.507689
aa(lp735
F0.173167
aF0.434136
aF0.17671
aF0.15702
aF0.52235
aF0.411382
aF0.0
aF0.017097
aF0.599787
aF0.89028
aF0.565971
aF0.674267
aF0.783919
aa(lp736
F0.120479
aF0.571566
aF0.146334
aF0.195244
aF0.551699
aF0.579476
aF0.0
aF0.785478
aF0.79665
aF0.641835
aF0.449838
aF0.587791
aF0.695485
aa(lp737
F0.089834
aF0.559119
aF0.603511
aF0.199875
aF0.593479
aF0.127134
aF0.0
aF0.021521
aF0.62417
aF0.3798
aF0.749374
aF0.875916
aF0.507689
aa(lp738
F0.151301
aF0.118341
aF0.40644
aF0.54049
aF0.530674
aF0.612312
aF0.0
aF0.763147
aF0.826363
aF0.601368
aF0.383075
aF0.148507
aF0.729164
aa(lp739
F0.143053
aF0.434285
aF0.471656
aF0.125191
aF0.517691
aF0.524335
aF0.0
aF0.715081
aF0.806251
aF0.964798
aF0.730456
aF0.613819
aF0.920827
aa(lp740
F0.151702
aF0.424008
aF0.128756
aF0.126451
aF0.584611
aF0.562056
aF0.0
aF0.366233
aF0.707348
aF0.933148
aF0.958563
aF0.752011
aF0.930165
aa(lp741
F0.145179
aF0.455133
aF0.448443
aF0.177849
aF0.473028
aF0.656868
aF0.0
aF0.591555
aF0.472202
aF0.815235
aF0.533548
aF0.175803
aF0.833701
aa(lp742
F0.151702
aF0.424008
aF0.128756
aF0.126451
aF0.584611
aF0.562056
aF0.0
aF0.366233
aF0.707348
aF0.933148
aF0.958563
aF0.752011
aF0.930165
aa(lp743
F0.16004
aF0.124439
aF0.209095
aF0.037804
aF0.591372
aF0.269244
aF0.0
aF0.0
aF0.438077
aF0.671818
aF0.484546
aF0.642274
aF0.711472
aa(lp744
F0.16004
aF0.124439
aF0.209095
aF0.037804
aF0.591372
aF0.269244
aF0.0
aF0.0
aF0.438077
aF0.671818
aF0.484546
aF0.642274
aF0.711472
aa(lp745
F0.152354
aF0.179874
aF0.701827
aF0.138839
aF0.542008
aF0.680283
aI0
aF0.563553
aF0.825938
aF0.606031
aF0.312513
aF0.363298
aF0.448042
aa(lp746
F0.196632
aF0.179634
aF0.202836
aF0.140064
aF0.47915
aF0.566604
aF0.0
aF0.282587
aF0.941286
aF0.970669
aF0.987521
aF0.924129
aF0.917745
aa(lp747
F0.448439
aF0.437711
aF0.450489
aF0.133774
aF0.492234
aF0.818386
aF0.0
aF0.871734
aF0.801938
aF0.712291
aF0.857382
aF0.325166
aF0.79065
aa(lp748
F0.11837
aF0.453591
aF0.241106
aF0.1264
aF0.497547
aF0.385134
aF0.0
aF0.112503
aF0.653897
aF0.412498
aF0.448472
aF0.3844
aF0.489049
aa(lp749
F0.182997
aF0.468793
aF0.157291
aF0.120603
aF0.33322
aF0.778176
aF0.0
aF0.421905
aF0.758868
aF0.860179
aF0.93165
aF0.792687
aF0.858038
aa(lp750
F0.143898
aF0.185248
aF0.552931
aF0.125528
aF0.522588
aF0.620849
aF0.0
aF0.363459
aF0.754866
aF0.854535
aF0.442301
aF0.219385
aF0.792759
aa(lp751
F0.157793
aF0.504078
aF0.133494
aF0.148514
aF0.507529
aF0.744675
aF0.0
aF0.178538
aF0.732437
aF0.714433
aF0.784071
aF0.453588
aF0.752597
aa(lp752
F0.127092
aF0.124642
aF0.164925
aF0.472303
aF0.560492
aF0.361205
aF0.207481
aF0.0
aF0.619554
aF0.961216
aF0.926647
aF0.754731
aF0.871809
aa(lp753
F0.092249
aF0.158627
aF0.445081
aF0.189126
aF0.509604
aF0.582559
aF0.0
aF0.642202
aF0.964639
aF0.323803
aF0.497566
aF0.831007
aF0.543831
aa(lp754
F0.111709
aF0.463238
aF0.20107
aF0.091891
aF0.574555
aF0.787372
aF0.105783
aF0.0
aF0.92847
aF0.943216
aF0.832363
aF0.426182
aF0.918505
aa(lp755
F0.11166
aF0.236131
aF0.418817
aF0.174666
aF0.54875
aF0.675312
aF0.021627
aF0.0
aF0.727757
aF0.911807
aF0.952196
aF0.884504
aF0.933511
aa(lp756
F0.434118
aF0.58694
aF0.103542
aF0.214978
aF0.49897
aF0.690729
aF0.0
aF0.625619
aF0.633797
aF0.400789
aF0.843654
aF0.662914
aF0.6047
aa(lp757
F0.212865
aF0.434331
aF0.477107
aF0.131513
aF0.520713
aF0.790674
aF0.0
aF0.05895
aF0.480719
aF0.699075
aF0.48094
aF0.057855
aF0.626125
aa(lp758
F0.128152
aF0.247322
aF0.192014
aF0.204025
aF0.320918
aF0.780788
aF0.160579
aF0.0
aF0.846885
aF0.946768
aF0.97792
aF0.949878
aF0.956047
aa(lp759
F0.123181
aF0.456693
aF0.471794
aF0.094844
aF0.509387
aF0.685678
aF0.0
aF0.403948
aF0.722603
aF0.95695
aF0.889258
aF0.608055
aF0.929853
aa(lp760
F0.065224
aF0.110438
aF0.347426
aF0.177406
aF0.373004
aF0.620279
aF0.0
aF0.401017
aF0.21825
aF0.151399
aF0.820605
aF0.47956
aF0.03444
aa(lp761
F0.140899
aF0.190939
aF0.162918
aF0.098025
aF0.53644
aF0.309718
aF0.0
aF0.514753
aF0.771647
aF0.819055
aF0.816103
aF0.306691
aF0.793617
aa(lp762
F0.17261
aF0.059559
aF0.072361
aF0.59228
aF0.478507
aF0.0
aF0.0
aF0.569898
aF0.360111
aF0.704172
aF0.564203
aF0.986204
aF0.680177
aa(lp763
F0.146643
aF0.424021
aF0.151507
aF0.453161
aF0.495727
aF0.705234
aF0.0
aF0.755426
aF0.744913
aF0.904091
aF0.850286
aF0.760237
aF0.934155
aa(lp764
F0.146643
aF0.424021
aF0.151507
aF0.453161
aF0.495727
aF0.705234
aF0.0
aF0.755426
aF0.744913
aF0.904091
aF0.850286
aF0.760237
aF0.934155
aa(lp765
F0.080201
aF0.463578
aF0.616885
aF0.23003
aF0.495766
aF0.303537
aF0.0
aF0.724359
aF0.781584
aF0.012963
aF0.829682
aF0.62449
aF0.333599
aa(lp766
F0.15878
aF0.432944
aF0.139114
aF0.056516
aF0.524268
aF0.422242
aF0.0
aF0.600891
aF0.864775
aF0.904261
aF0.875318
aF0.774773
aF0.976592
aa(lp767
F0.239759
aF0.308082
aF0.193812
aF0.089922
aF0.28226
aF0.809939
aF0.0
aF0.255208
aF0.889418
aF0.992311
aF0.801433
aF0.526826
aF0.961156
aa(lp768
F0.086841
aF0.431059
aF0.142825
aF0.509717
aF0.512625
aF0.445028
aF0.0
aF0.762817
aF0.766418
aF0.695704
aF0.87914
aF0.442135
aF0.865878
aa(lp769
F0.216295
aF0.313594
aF0.173632
aF0.076671
aF0.457264
aF0.566906
aF0.0
aF0.474242
aF0.937501
aF0.762886
aF0.957188
aF0.633161
aF0.80014
aa(lp770
F0.228187
aF0.223469
aF0.462339
aF0.086708
aF0.517942
aF0.652164
aF0.0
aF0.647536
aF0.865251
aF0.718169
aF0.639823
aF0.123438
aF0.696817
aa(lp771
F0.139475
aF0.16961
aF0.136669
aF0.206578
aF0.523539
aF0.696973
aF0.0
aF0.713542
aF0.813129
aF0.887817
aF0.866973
aF0.742679
aF0.948791
aa(lp772
F0.177454
aF0.487673
aF0.592417
aF0.167183
aF0.488866
aF0.639065
aF0.0
aF0.089313
aF0.856598
aF0.987341
aF0.838686
aF0.805241
aF0.905409
aa(lp773
F0.143466
aF0.21565
aF0.1909
aF0.117086
aF0.542675
aF0.390399
aF0.0
aF0.202175
aF0.776315
aF0.651781
aF0.772362
aF0.19719
aF0.765732
aa(lp774
F0.147714
aF0.132218
aF0.149679
aF0.54002
aF0.495181
aF0.327195
aF0.0
aF0.282433
aF0.518959
aF0.997802
aF0.698253
aF0.938517
aF0.919071
aa(lp775
F0.098545
aF0.457907
aF0.143812
aF0.255479
aF0.585355
aF0.537438
aF0.0
aF0.292923
aF0.739634
aF0.939908
aF0.960397
aF0.715676
aF0.901628
aa(lp776
F0.145463
aF0.271378
aF0.115192
aF0.061709
aF0.576319
aF0.799253
aF0.0
aF0.524509
aF0.690999
aF0.747892
aF0.936416
aF0.683365
aF0.900942
aa(lp777
F0.239916
aF0.217677
aF0.113937
aF0.149708
aF0.375532
aF0.826482
aF0.0
aF0.527793
aF0.364803
aF0.974346
aF0.577893
aF0.769721
aF0.925172
aa(lp778
F0.1501
aF0.529318
aF0.099362
aF0.090784
aF0.577067
aF0.7521
aF0.0
aF0.296943
aF0.67627
aF0.185062
aF0.859915
aF0.826594
aF0.586547
aa(lp779
F0.18059
aF0.165243
aF0.227253
aF0.510046
aF0.413236
aF0.643382
aF0.0
aF0.970386
aF0.810209
aF0.069848
aF0.815707
aF0.342741
aF0.182735
aa(lp780
F0.162923
aF0.28673
aF0.170539
aF0.113996
aF0.517681
aF0.873738
aF0.0
aF0.017582
aF0.865747
aF0.97492
aF0.879899
aF0.837589
aF0.924454
aa(lp781
F0.12745
aF0.160357
aF0.159121
aF0.094425
aF0.538631
aF0.724017
aF0.0
aF0.073314
aF0.759418
aF0.881853
aF0.765816
aF0.742855
aF0.854241
aa(lp782
F0.136786
aF0.48582
aF0.474452
aF0.112714
aF0.475041
aF0.246775
aF0.0
aF0.038152
aF0.665214
aF0.961394
aF0.844536
aF0.474964
aF0.8981
aa(lp783
F0.18059
aF0.165243
aF0.227253
aF0.510046
aF0.413236
aF0.643382
aF0.0
aF0.970386
aF0.810209
aF0.069848
aF0.815707
aF0.342741
aF0.182735
aa(lp784
F0.176341
aF0.453615
aF0.168942
aF0.193451
aF0.530914
aF0.565507
aF0.0
aF0.146938
aF0.763259
aF0.95091
aF0.776855
aF0.855234
aF0.870984
aa(lp785
F0.140292
aF0.162645
aF0.474093
aF0.132611
aF0.484623
aF0.694247
aF0.0
aF0.419662
aF0.838251
aF0.794684
aF0.953227
aF0.417536
aF0.839377
aa(lp786
F0.462361
aF0.146376
aF0.589679
aF0.182405
aF0.491169
aF0.630201
aF0.0
aF0.133078
aF0.68209
aF0.911538
aF0.543192
aF0.549713
aF0.870074
aa(lp787
F0.415333
aF0.481975
aF0.537765
aF0.089192
aF0.505377
aF0.584638
aF0.0
aF0.568659
aF0.752243
aF0.964058
aF0.59486
aF0.332911
aF0.844977
aa(lp788
F0.092583
aF0.222915
aF0.441437
aF0.18065
aF0.553221
aF0.58038
aF0.20782
aF0.0
aF0.812592
aF0.938699
aF0.949508
aF0.879384
aF0.928632
aa(lp789
F0.128709
aF0.573364
aF0.686542
aF0.157481
aF0.335383
aF0.261285
aF0.0
aF0.090749
aF0.697151
aF0.965317
aF0.957979
aF0.849459
aF0.90727
aa(lp790
F0.156901
aF0.410994
aF0.106607
aF0.139856
aF0.552722
aF0.519372
aF0.0
aF0.454009
aF0.347024
aF0.921864
aF0.860259
aF0.761036
aF0.945523
aa(lp791
F0.064244
aF0.539485
aF0.520298
aF0.144932
aF0.549182
aF0.499822
aF0.0
aF0.167363
aF0.855983
aF0.711416
aF0.797623
aF0.957074
aF0.738408
aa(lp792
F0.154287
aF0.249032
aF0.227494
aF0.136148
aF0.451022
aF0.604823
aF0.0
aF0.49578
aF0.550707
aF0.968162
aF0.694836
aF0.605949
aF0.949615
aa(lp793
F0.18059
aF0.165243
aF0.227253
aF0.510046
aF0.413236
aF0.643382
aF0.0
aF0.970386
aF0.810209
aF0.069848
aF0.815707
aF0.342741
aF0.182735
aa(lp794
F0.114965
aF0.132937
aF0.152147
aF0.250949
aF0.508525
aF0.241656
aF0.0
aF0.293132
aF0.689018
aF0.874466
aF0.912089
aF0.693194
aF0.980212
aa(lp795
F0.18059
aF0.165243
aF0.227253
aF0.510046
aF0.413236
aF0.643382
aF0.0
aF0.970386
aF0.810209
aF0.069848
aF0.815707
aF0.342741
aF0.182735
aa(lp796
F0.162664
aF0.510854
aF0.244223
aF0.126609
aF0.543566
aF0.589439
aF0.0
aF0.029375
aF0.890808
aF0.931183
aF0.903439
aF0.621689
aF0.869902
aa(lp797
F0.219022
aF0.518091
aF0.122111
aF0.087617
aF0.28569
aF0.633836
aF0.0
aF0.303707
aF0.873979
aF0.853299
aF0.970365
aF0.801896
aF0.906667
aa(lp798
F0.43303
aF0.092322
aF0.107446
aF0.482661
aF0.517251
aF0.758535
aF0.0
aF0.573336
aF0.440749
aF0.325895
aF0.126451
aF0.016047
aF0.705287
aa(lp799
F0.149373
aF0.224004
aF0.4336
aF0.133161
aF0.514348
aF0.685656
aF0.0
aF0.023311
aF0.796677
aF0.938047
aF0.878709
aF0.694241
aF0.87917
aa(lp800
F0.173203
aF0.187754
aF0.451944
aF0.179913
aF0.492274
aF0.607099
aF0.0
aF0.663678
aF0.426146
aF0.136231
aF0.028509
aF0.02513
aF0.387044
aa(lp801
F0.156576
aF0.464297
aF0.418428
aF0.246976
aF0.498356
aF0.377708
aF0.0
aF0.000754
aF0.288478
aF0.286219
aF0.089777
aF0.068012
aF0.532802
aa(lp802
F0.092478
aF0.151079
aF0.250149
aF0.063245
aF0.515019
aF0.044708
aF0.0
aF0.706892
aF0.816286
aF0.298642
aF0.614361
aF0.393574
aF0.520542
aa(lp803
F0.100674
aF0.147496
aF0.564346
aF0.039129
aF0.461356
aF0.551193
aF0.0
aF0.723876
aF0.817745
aF0.648296
aF0.51527
aF0.385287
aF0.65463
aa(lp804
F0.536918
aF0.165741
aF0.190529
aF0.229657
aF0.505735
aF0.213907
aF0.0
aF0.002867
aF0.179324
aF0.189657
aF0.017815
aF0.08619
aF0.453049
aa(lp805
F0.138822
aF0.189549
aF0.16883
aF0.210771
aF0.523943
aF0.168733
aF0.0
aF0.494282
aF0.254118
aF0.285825
aF0.071958
aF0.090849
aF0.606317
aa(lp806
F0.107565
aF0.624364
aF0.019453
aF0.021844
aF0.30303
aF0.016187
aF0.0
aF0.028768
aF0.783617
aF0.556446
aF0.404698
aF0.99753
aF0.146946
aa(lp807
F0.144123
aF0.155732
aF0.473931
aF0.185679
aF0.529466
aF0.617278
aF0.0
aF0.200262
aF0.234379
aF0.405453
aF0.028155
aF0.071762
aF0.555388
aa(lp808
F0.125054
aF0.107176
aF0.148744
aF0.534612
aF0.467579
aF0.225705
aF0.0
aF0.744949
aF0.054117
aF0.54873
aF0.000268
aF0.192478
aF0.565995
aa(lp809
F0.067727
aF0.169069
aF0.09869
aF0.027799
aF0.731097
aF0.198919
aF0.0
aF0.0
aF0.432973
aF0.157438
aF0.175421
aF0.300625
aF0.620171
aa(lp810
F0.086051
aF0.520288
aF0.161849
aF0.066237
aF0.564921
aF0.253239
aF0.0
aF0.417021
aF0.185971
aF0.466628
aF0.274305
aF0.338116
aF0.424724
aa(lp811
F0.602506
aF0.507738
aF0.501575
aF0.073736
aF0.592088
aF0.544073
aF0.0
aF0.195865
aF0.841922
aF0.752493
aF0.854151
aF0.40145
aF0.755739
aa(lp812
F0.082112
aF0.665999
aF0.061651
aF0.008143
aF0.305624
aF0.942061
aF0.0
aF0.348673
aF0.787815
aF0.41284
aF0.95534
aF0.492972
aF0.806598
aa(lp813
F0.063217
aF0.148982
aF0.408886
aF0.054766
aF0.362617
aF0.65511
aF0.0
aF0.7224
aF0.902002
aF0.122296
aF0.847071
aF0.398659
aF0.08003
aa(lp814
F0.058859
aF0.206633
aF0.488223
aF0.006146
aF0.421217
aF0.062926
aF0.0
aF0.851834
aF0.605795
aF0.608325
aF0.486426
aF0.409928
aF0.863346
aa(lp815
F0.117165
aF0.185573
aF0.148149
aF0.193421
aF0.541013
aF0.256082
aF0.0
aF0.19665
aF0.90538
aF0.48869
aF0.816043
aF0.954992
aF0.660365
aa(lp816
F0.236033
aF0.12461
aF0.496426
aF0.088863
aF0.100804
aF0.0
aF0.0
aF0.0
aF0.935158
aF0.535653
aF0.82843
aF0.428667
aF0.30116
aa(lp817
F0.135329
aF0.44287
aF0.429699
aF0.125326
aF0.518722
aF0.0
aF0.0
aF0.112968
aF0.80574
aF0.755889
aF0.787613
aF0.670724
aF0.847987
aa(lp818
F0.069676
aF0.277905
aF0.284241
aF0.311557
aF0.148417
aF0.318744
aF0.238608
aF0.0
aF0.015426
aF0.416071
aF0.182663
aF0.378803
aF0.698316
aa(lp819
F0.064638
aF0.055641
aF0.144159
aF0.450416
aF0.308748
aF0.687201
aF0.0
aF0.0
aF0.947055
aF0.205627
aF0.400337
aF0.51095
aF0.656394
aa(lp820
F0.167278
aF0.471716
aF0.519584
aF0.062421
aF0.488929
aF0.460758
aF0.0
aF0.516042
aF0.686789
aF0.760508
aF0.653851
aF0.265964
aF0.637
aa(lp821
F0.118707
aF0.427274
aF0.026182
aF0.21717
aF0.286615
aF0.570178
aF0.0
aF0.175687
aF0.969206
aF0.234495
aF0.330619
aF0.604918
aF0.195966
aa(lp822
F0.113585
aF0.433149
aF0.20234
aF0.18424
aF0.508737
aF0.621434
aF0.0
aF0.648454
aF0.783233
aF0.878626
aF0.879335
aF0.542096
aF0.836495
aa(lp823
F0.136061
aF0.594112
aF0.115093
aF0.019909
aF0.262195
aF0.87775
aF0.898523
aF0.0
aF0.99353
aF0.444096
aF0.903924
aF0.581047
aF0.485286
aa(lp824
F0.115348
aF0.562756
aF0.188274
aF0.103653
aF0.456458
aF0.655137
aF0.0
aF0.380971
aF0.856822
aF0.393275
aF0.238098
aF0.094485
aF0.354346
aa(lp825
F0.107379
aF0.375338
aF0.138436
aF0.014382
aF0.488151
aF0.884514
aF0.884276
aF0.0
aF0.802605
aF0.876071
aF0.91414
aF0.69663
aF0.859865
aa(lp826
F0.134287
aF0.475034
aF0.440622
aF0.181906
aF0.487305
aF0.693698
aF0.0
aF0.321016
aF0.864524
aF0.93483
aF0.94013
aF0.74109
aF0.945536
aa(lp827
F0.22225
aF0.255832
aF0.199834
aF0.081017
aF0.483647
aF0.876219
aF0.310033
aF0.0
aF0.647271
aF0.822913
aF0.962906
aF0.779493
aF0.747672
aa(lp828
F0.036597
aF0.039811
aF0.364261
aF0.132533
aF0.4844
aF0.0
aF0.0
aF0.0
aF0.647732
aF0.374673
aF0.805074
aF0.753717
aF0.800852
aa(lp829
F0.218552
aF0.25293
aF0.214549
aF0.105715
aF0.314271
aF0.697391
aF0.0
aF0.001261
aF0.635521
aF0.965993
aF0.979101
aF0.911309
aF0.930428
aa(lp830
F0.103468
aF0.418437
aF0.156264
aF0.247634
aF0.526786
aF0.541342
aF0.0
aF6.8e-05
aF0.488721
aF0.856074
aF0.748274
aF0.351337
aF0.912541
aa(lp831
F0.449332
aF0.109617
aF0.183479
aF0.252118
aF0.544542
aF0.754276
aF0.0
aF0.733962
aF0.924507
aF0.952195
aF0.731802
aF0.367474
aF0.878841
aa(lp832
F0.036597
aF0.039811
aF0.364261
aF0.132533
aF0.4844
aF0.0
aF0.0
aF0.0
aF0.647732
aF0.374673
aF0.805074
aF0.753717
aF0.800852
aa(lp833
F0.38777
aF0.143753
aF0.160567
aF0.199069
aF0.524379
aF0.794372
aF0.0
aF0.425506
aF0.689085
aF0.905708
aF0.843447
aF0.768821
aF0.956911
aa(lp834
F0.234648
aF0.207255
aF0.132578
aF0.166673
aF0.489919
aF0.715672
aF0.0
aF0.588339
aF0.369296
aF0.628509
aF0.901023
aF0.206363
aF0.910964
aa(lp835
F0.101579
aF0.129092
aF0.39946
aF0.462889
aF0.461105
aF0.672333
aF0.0
aF0.0
aF0.360179
aF0.957067
aF0.829658
aF0.567076
aF0.738378
aa(lp836
F0.158217
aF0.449621
aF0.209121
aF0.114334
aF0.364982
aF0.623757
aF0.0
aF0.669218
aF0.796786
aF0.988485
aF0.895175
aF0.658328
aF0.953215
aa(lp837
F0.459882
aF0.232526
aF0.188899
aF0.111872
aF0.31111
aF0.674345
aF0.26326
aF0.0
aF0.482658
aF0.981617
aF0.626501
aF0.417022
aF0.975204
aa(lp838
F0.111386
aF0.169454
aF0.227119
aF0.230877
aF0.460852
aF0.277446
aF0.0
aF0.66747
aF0.385419
aF0.940349
aF0.659696
aF0.603391
aF0.91111
aa(lp839
F0.19196
aF0.207273
aF0.164846
aF0.15894
aF0.571729
aF0.427894
aF0.47328
aF0.0
aF0.702332
aF0.995384
aF0.872297
aF0.86515
aF0.833982
aa(lp840
F0.451906
aF0.17427
aF0.440481
aF0.198871
aF0.279689
aF0.497006
aF0.0
aF0.344705
aF0.706733
aF0.963843
aF0.767546
aF0.61756
aF0.837436
aa(lp841
F0.455163
aF0.195305
aF0.188402
aF0.220864
aF0.263212
aF0.603955
aF0.357636
aF0.0
aF0.716985
aF0.973641
aF0.905238
aF0.858677
aF0.864494
aa(lp842
F0.16704
aF0.443591
aF0.147934
aF0.114589
aF0.477433
aF0.623348
aF0.0
aF0.524716
aF0.544602
aF0.966453
aF0.77028
aF0.708582
aF0.950029
aa(lp843
F0.161423
aF0.114938
aF0.184716
aF0.22025
aF0.473427
aF0.548289
aF0.0
aF0.06779
aF0.47409
aF0.934369
aF0.825383
aF0.633544
aF0.852687
aa(lp844
F0.141543
aF0.208572
aF0.462454
aF0.40857
aF0.448963
aF0.432442
aF0.0
aF0.092281
aF0.590882
aF0.805682
aF0.883998
aF0.497703
aF0.667892
aa(lp845
F0.114484
aF0.445238
aF0.203056
aF0.295531
aF0.266185
aF0.0
aF0.0
aF0.551867
aF0.502678
aF0.819201
aF0.972699
aF0.864014
aF0.762441
aa(lp846
F0.318101
aF0.446518
aF0.176038
aF0.085452
aF0.224521
aF0.810175
aF0.072417
aF0.0
aF0.852537
aF0.960291
aF0.648881
aF0.833113
aF0.869331
aa(lp847
F0.211182
aF0.010507
aF0.034144
aF0.182737
aF0.642135
aF0.908592
aF0.0
aF0.947419
aF0.588378
aF0.603079
aF0.559631
aF0.894869
aF0.845053
aa(lp848
F0.099694
aF0.141208
aF0.472465
aF0.199587
aF0.544797
aF0.557955
aF0.0
aF0.834367
aF0.631619
aF0.782118
aF0.802479
aF0.424235
aF0.918497
aa(lp849
F0.173109
aF0.419803
aF0.161121
aF0.177468
aF0.328803
aF0.518293
aF0.0
aF0.587607
aF0.682062
aF0.982212
aF0.726706
aF0.460048
aF0.970909
aa(lp850
F0.117418
aF0.233655
aF0.182735
aF0.18102
aF0.465712
aF0.630982
aF0.488579
aF0.0
aF0.658783
aF0.945013
aF0.896982
aF0.742
aF0.935641
aa(lp851
F0.112331
aF0.440695
aF0.536723
aF0.097678
aF0.526062
aF0.660058
aF0.0
aF0.499477
aF0.716431
aF0.3781
aF0.651706
aF0.251863
aF0.559532
aa(lp852
F0.143478
aF0.473284
aF0.50308
aF0.243303
aF0.452932
aF0.74146
aF0.0
aF0.700074
aF0.756907
aF0.879071
aF0.852714
aF0.865168
aF0.906304
aa(lp853
F0.192016
aF0.402565
aF0.120397
aF0.057697
aF0.315696
aF0.709219
aF0.0
aF0.0
aF0.908522
aF0.956011
aF0.997229
aF0.962177
aF0.966876
aa(lp854
F0.120402
aF0.472108
aF0.113223
aF0.173439
aF0.202035
aF0.0
aF0.0
aF0.0
aF0.661698
aF0.796724
aF0.856268
aF0.857003
aF0.85332
aa(lp855
F0.148338
aF0.141449
aF0.134299
aF0.253322
aF0.535516
aF0.449947
aF0.0
aF0.14316
aF0.504356
aF0.859466
aF0.751067
aF0.505456
aF0.910732
aa(lp856
F0.082968
aF0.244486
aF0.190908
aF0.008766
aF0.627277
aF0.080162
aF0.0
aF0.71572
aF0.464993
aF0.738388
aF0.841322
aF0.900288
aF0.95838
aa(lp857
F0.140445
aF0.258782
aF0.474129
aF0.126819
aF0.479006
aF0.758431
aF0.0
aF0.058588
aF0.427501
aF0.906064
aF0.966633
aF0.886311
aF0.871739
aa(lp858
F0.254642
aF0.440265
aF0.111978
aF0.123909
aF0.469246
aF0.495312
aF0.0
aF0.567218
aF0.702213
aF0.95024
aF0.532994
aF0.421435
aF0.911438
aa(lp859
F0.456752
aF0.524479
aF0.202656
aF0.122071
aF0.465497
aF0.591132
aF0.0
aF0.588338
aF0.913355
aF0.981353
aF0.981396
aF0.872591
aF0.903477
aa(lp860
F0.237699
aF0.340162
aF0.04158
aF0.000628
aF0.548715
aF0.453723
aF0.621183
aF0.0
aF0.651579
aF0.949594
aF0.845912
aF0.576506
aF0.92028
aa(lp861
F0.154014
aF0.21994
aF0.165855
aF0.140474
aF0.505575
aF0.762472
aF0.0
aF0.79141
aF0.625061
aF0.982894
aF0.879781
aF0.870253
aF0.932608
aa(lp862
F0.133297
aF0.105879
aF0.492555
aF0.186012
aF0.531847
aF0.718991
aF0.0
aF0.553304
aF0.831327
aF0.654647
aF0.736517
aF0.285322
aF0.524182
aa(lp863
F0.190234
aF0.196364
aF0.49414
aF0.121025
aF0.457792
aF0.351739
aF0.0
aF0.50589
aF0.840883
aF0.389138
aF0.925734
aF0.827441
aF0.706985
aa(lp864
F0.202987
aF0.088755
aF0.095888
aF0.534728
aF0.431532
aF0.784036
aF0.0
aF0.482029
aF0.807296
aF0.79172
aF0.715778
aF0.895289
aF0.515617
aa(lp865
F0.516188
aF0.174299
aF0.443264
aF0.122917
aF0.47165
aF0.699412
aF0.0
aF0.061924
aF0.527899
aF0.518382
aF0.645899
aF0.211284
aF0.810299
aa(lp866
F0.491762
aF0.464274
aF0.189407
aF0.1642
aF0.456537
aF0.489889
aF0.0
aF0.0
aF0.799002
aF0.933838
aF0.951656
aF0.716672
aF0.924372
aa(lp867
F0.199938
aF0.507556
aF0.46416
aF0.000155
aF0.043092
aF0.63777
aF0.0
aF0.366248
aF0.834717
aF0.95535
aF0.976184
aF0.865352
aF0.924243
aa(lp868
F0.166721
aF0.541598
aF0.17585
aF0.067908
aF0.285581
aF0.745409
aF0.0
aF0.29499
aF0.936466
aF0.954048
aF0.982389
aF0.841206
aF0.885078
aa(lp869
F0.148338
aF0.141449
aF0.134299
aF0.253322
aF0.535516
aF0.449947
aF0.0
aF0.14316
aF0.504356
aF0.859466
aF0.751067
aF0.505456
aF0.910732
aa(lp870
F0.130519
aF0.204797
aF0.162376
aF0.195422
aF0.517476
aF0.169198
aF0.0
aF0.633654
aF0.879226
aF0.847009
aF0.992766
aF0.886105
aF0.874468
aa(lp871
F0.178393
aF0.458388
aF0.119892
aF0.542477
aF0.204198
aF0.77482
aF0.0
aF0.20936
aF0.680811
aF0.469314
aF0.800794
aF0.532243
aF0.673834
aa(lp872
F0.113243
aF0.17623
aF0.1489
aF0.555875
aF0.297402
aF0.0
aF0.0
aF0.736428
aF0.643887
aF0.957781
aF0.930657
aF0.764025
aF0.884244
aa(lp873
F0.077228
aF0.513233
aF0.149759
aF0.237418
aF0.452403
aF0.622897
aF0.0
aF0.010205
aF0.508232
aF0.684764
aF0.838578
aF0.3471
aF0.948095
aa(lp874
F0.462028
aF0.505064
aF0.169171
aF0.133552
aF0.496614
aF0.437079
aF0.721
aF0.0
aF0.408263
aF0.420492
aF0.962367
aF0.889886
aF0.661731
aa(lp875
F0.176695
aF0.125139
aF0.169443
aF0.346496
aF0.248889
aF0.0
aF0.0
aF0.706892
aF0.606811
aF0.481149
aF0.57685
aF0.809669
aF0.770746
aa(lp876
F0.166578
aF0.183256
aF0.112298
aF0.217654
aF0.514311
aF0.879918
aF0.0
aF0.399925
aF0.698056
aF0.857644
aF0.889539
aF0.788492
aF0.939382
aa(lp877
F0.157125
aF0.497647
aF0.177732
aF0.122408
aF0.458042
aF0.836575
aF0.690768
aF0.0
aF0.734988
aF0.829563
aF0.684795
aF0.489566
aF0.81109
aa(lp878
F0.036597
aF0.039811
aF0.364261
aF0.132533
aF0.4844
aF0.0
aF0.0
aF0.0
aF0.647732
aF0.374673
aF0.805074
aF0.753717
aF0.800852
aa(lp879
F0.036597
aF0.039811
aF0.364261
aF0.132533
aF0.4844
aF0.0
aF0.0
aF0.0
aF0.647732
aF0.374673
aF0.805074
aF0.753717
aF0.800852
aa(lp880
F0.118328
aF0.200392
aF0.527512
aF0.419997
aF0.224539
aF0.0
aF0.334253
aF0.0
aF0.426095
aF0.985122
aF0.830631
aF0.674276
aF0.950378
aa(lp881
F0.14706
aF0.427808
aF0.456869
aF0.115763
aF0.511554
aF0.0
aF0.0
aF0.054949
aF0.858726
aF0.933703
aF0.80292
aF0.489585
aF0.883501
aa(lp882
F0.174162
aF0.25899
aF0.110822
aF0.181871
aF0.467853
aF0.201394
aF0.0
aF0.436219
aF0.72648
aF0.1973
aF0.93882
aF0.399937
aF0.635607
aa(lp883
F0.155253
aF0.198781
aF0.178944
aF0.153098
aF0.542588
aF0.685088
aF0.0
aF0.001116
aF0.642308
aF0.908542
aF0.885007
aF0.527327
aF0.94484
aa(lp884
F0.148933
aF0.194205
aF0.608851
aF0.190213
aF0.474238
aF0.603166
aF0.0
aF0.407432
aF0.65404
aF0.947738
aF0.924516
aF0.833838
aF0.889111
aa(lp885
F0.187526
aF0.253891
aF0.188876
aF0.128595
aF0.484655
aF0.712452
aF0.0
aF0.517853
aF0.653033
aF0.950521
aF0.939971
aF0.815043
aF0.874162
aa(lp886
F0.50218
aF0.15745
aF0.163874
aF0.4737
aF0.494711
aF0.419539
aF0.0
aF0.122212
aF0.817415
aF0.920754
aF0.949543
aF0.831558
aF0.837803
aa(lp887
F0.182924
aF0.148686
aF0.428689
aF0.222989
aF0.482135
aF0.780568
aF0.0
aF0.600174
aF0.785807
aF0.487443
aF0.834427
aF0.275294
aF0.655619
aa(lp888
F0.177308
aF0.242596
aF0.142871
aF0.211676
aF0.578176
aF0.749873
aF0.556908
aF0.0
aF0.437071
aF0.881117
aF0.928793
aF0.867558
aF0.693257
aa(lp889
F0.15397
aF0.163824
aF0.500751
aF0.406133
aF0.318102
aF0.048461
aF0.0
aF0.030541
aF0.853813
aF0.959345
aF0.961484
aF0.691404
aF0.805764
aa(lp890
F0.128276
aF0.145986
aF0.54014
aF0.259023
aF0.435948
aF0.71103
aF0.0
aF0.340284
aF0.797855
aF0.815008
aF0.989417
aF0.646507
aF0.887802
aa(lp891
F0.115926
aF0.127486
aF0.098924
aF0.080677
aF0.673319
aF0.765814
aF0.0
aF0.698156
aF0.24724
aF0.904871
aF0.737739
aF0.8658
aF0.889955
aa(lp892
F0.036597
aF0.039811
aF0.364261
aF0.132533
aF0.4844
aF0.0
aF0.0
aF0.0
aF0.647732
aF0.374673
aF0.805074
aF0.753717
aF0.800852
aa(lp893
F0.093112
aF0.185745
aF0.151877
aF0.254108
aF0.49801
aF0.532046
aF0.0
aF0.623246
aF0.564708
aF0.927758
aF0.879635
aF0.679571
aF0.825071
aa(lp894
F0.475549
aF0.497508
aF0.197308
aF0.497695
aF0.522436
aF0.710154
aF0.0
aF0.117081
aF0.538288
aF0.933286
aF0.915822
aF0.76655
aF0.881298
aa(lp895
F0.097784
aF0.142075
aF0.408002
aF0.531543
aF0.278443
aF0.372612
aF0.228248
aF0.0
aF0.510439
aF0.867012
aF0.948479
aF0.876735
aF0.840026
aa(lp896
F0.150108
aF0.211291
aF0.153175
aF0.131323
aF0.50873
aF0.824063
aF0.0
aF0.686217
aF0.3766
aF0.910329
aF0.697931
aF0.572362
aF0.863923
aa(lp897
F0.159269
aF0.105503
aF0.175316
aF0.495257
aF0.510065
aF0.789106
aF0.0
aF0.204328
aF0.792511
aF0.636761
aF0.796427
aF0.296318
aF0.637644
aa(lp898
F0.150635
aF0.412626
aF0.482356
aF0.12974
aF0.275751
aF0.372006
aF0.0
aF0.41061
aF0.701744
aF0.796478
aF0.915756
aF0.670861
aF0.721525
aa(lp899
F0.470644
aF0.310318
aF0.179679
aF0.000831
aF0.139812
aF0.653051
aF0.0
aF0.20149
aF0.366142
aF0.921939
aF0.972065
aF0.825957
aF0.922897
aa(lp900
F0.500375
aF0.170102
aF0.113188
aF0.576909
aF0.170759
aF0.80727
aF0.566785
aF0.0
aF0.546484
aF0.375639
aF0.677336
aF0.352964
aF0.481647
aa(lp901
F0.134897
aF0.128294
aF0.482787
aF0.540081
aF0.192328
aF0.781149
aF0.0
aF0.186498
aF0.698006
aF0.592401
aF0.719256
aF0.280258
aF0.616091
aa(lp902
F0.121544
aF0.418375
aF0.48731
aF0.10382
aF0.51893
aF0.521816
aF0.008064
aF0.0
aF0.62973
aF0.985629
aF0.964745
aF0.847994
aF0.93797
aa(lp903
F0.186672
aF0.463853
aF0.107744
aF0.086715
aF0.495572
aF0.479049
aF0.0
aF0.273812
aF0.630841
aF0.950024
aF0.992623
aF0.932067
aF0.905879
aa(lp904
F0.135624
aF0.162778
aF0.490391
aF0.132563
aF0.494102
aF0.614484
aF0.0
aF0.866839
aF0.639486
aF0.92089
aF0.824897
aF0.707
aF0.91443
aa(lp905
F0.144398
aF0.191423
aF0.500641
aF0.168155
aF0.479848
aF0.537209
aF0.0
aF0.238571
aF0.649135
aF0.902734
aF0.972802
aF0.664778
aF0.868814
aa(lp906
F0.112951
aF0.494259
aF0.131251
aF0.239549
aF0.510797
aF0.576084
aF0.0
aF0.729148
aF0.716727
aF0.960089
aF0.98084
aF0.913986
aF0.969762
aa(lp907
F0.160766
aF0.173336
aF0.494055
aF0.162186
aF0.52141
aF0.745049
aF0.0
aF0.80724
aF0.645012
aF0.718926
aF0.906431
aF0.626194
aF0.902358
aa(lp908
F0.192306
aF0.183282
aF0.186399
aF0.141518
aF0.548211
aF0.519038
aF0.0
aF0.5912
aF0.656567
aF0.781658
aF0.831833
aF0.540987
aF0.8847
aa(lp909
F0.396057
aF0.157871
aF0.525799
aF0.152592
aF0.457232
aF0.832798
aF0.0
aF0.469672
aF0.905841
aF0.810222
aF0.418734
aF0.201517
aF0.777335
aa(lp910
F0.168097
aF0.478009
aF0.497896
aF0.203719
aF0.287972
aF0.791726
aF0.485269
aF0.0
aF0.757698
aF0.925481
aF0.466544
aF0.392983
aF0.818856
aa(lp911
F0.13118
aF0.454377
aF0.526695
aF0.071325
aF0.558423
aF0.737029
aF0.0
aF0.394761
aF0.827885
aF0.809309
aF0.953119
aF0.861902
aF0.862828
aa(lp912
F0.054337
aF0.135374
aF0.266515
aF0.044771
aF0.588987
aF0.349299
aF0.701849
aF0.0
aF0.416005
aF0.697484
aF0.947236
aF0.897957
aF0.892041
aa(lp913
F0.134395
aF0.492126
aF0.423395
aF0.163917
aF0.525693
aF0.472163
aF0.0
aF0.449045
aF0.684607
aF0.819222
aF0.920938
aF0.223243
aF0.831098
aa(lp914
F0.142299
aF0.439463
aF0.180674
aF0.147216
aF0.497993
aF0.851352
aF0.0
aF0.526787
aF0.815961
aF0.936757
aF0.931172
aF0.711565
aF0.951494
aa(lp915
F0.117073
aF0.436126
aF0.114845
aF0.158733
aF0.530195
aF0.77801
aF0.0
aF0.645815
aF0.747482
aF0.887771
aF0.791801
aF0.591983
aF0.928585
aa(lp916
F0.578217
aF0.253561
aF0.197061
aF0.081902
aF0.473918
aF0.662082
aF0.0
aF0.34307
aF0.854412
aF0.961613
aF0.973893
aF0.854774
aF0.935708
aa(lp917
F0.036597
aF0.039811
aF0.364261
aF0.132533
aF0.4844
aF0.0
aF0.0
aF0.0
aF0.647732
aF0.374673
aF0.805074
aF0.753717
aF0.800852
aa(lp918
F0.158889
aF0.528257
aF0.591524
aF0.142785
aF0.218096
aF0.727034
aF0.0
aF0.250807
aF0.911441
aF0.949785
aF0.934892
aF0.403076
aF0.940499
aa(lp919
F0.173109
aF0.419803
aF0.161121
aF0.177468
aF0.328803
aF0.518293
aF0.0
aF0.587607
aF0.682062
aF0.982212
aF0.726706
aF0.460048
aF0.970909
aa(lp920
F0.132801
aF0.472381
aF0.451749
aF0.118243
aF0.515426
aF0.178218
aF0.0
aF0.166637
aF0.66097
aF0.957892
aF0.963569
aF0.798793
aF0.951217
aa(lp921
F0.099524
aF0.418586
aF0.120619
aF0.23029
aF0.524261
aF0.581802
aF0.806136
aF0.0
aF0.558878
aF0.924799
aF0.894314
aF0.700051
aF0.887017
aa(lp922
F0.127241
aF0.458249
aF0.473574
aF0.244155
aF0.541318
aF0.022644
aF0.0
aF0.558893
aF0.754523
aF0.770783
aF0.455749
aF0.516741
aF0.754378
aa(lp923
F0.210549
aF0.454431
aF0.226445
aF0.181717
aF0.262963
aF0.299521
aF0.0
aF0.058944
aF0.460206
aF0.88977
aF0.897847
aF0.848375
aF0.860482
aa(lp924
F0.114051
aF0.449259
aF0.458795
aF0.142058
aF0.55286
aF0.465753
aF0.0
aF0.26873
aF0.645983
aF0.972632
aF0.986215
aF0.853129
aF0.943935
aa(lp925
F0.13561
aF0.188189
aF0.193502
aF0.093779
aF0.593811
aF0.0
aF0.0
aF0.0
aF0.48524
aF0.867413
aF0.774641
aF0.693127
aF0.862429
aa(lp926
F0.163463
aF0.461865
aF0.127138
aF0.231239
aF0.291656
aF0.442407
aF0.0
aF0.317836
aF0.837877
aF0.993286
aF0.951587
aF0.75258
aF0.941783
aa(lp927
F0.147189
aF0.235558
aF0.316738
aF0.052871
aF0.567277
aF0.62572
aF0.0
aF0.186193
aF0.741663
aF0.90837
aF0.955603
aF0.799228
aF0.776961
aa(lp928
F0.462885
aF0.467055
aF0.114183
aF0.088556
aF0.525954
aF0.766126
aF0.0
aF0.177968
aF0.717396
aF0.709627
aF0.995319
aF0.930668
aF0.821259
aa(lp929
F0.147653
aF0.146614
aF0.441255
aF0.184947
aF0.480433
aF0.639947
aF0.0
aF0.001083
aF0.536786
aF0.532697
aF0.874729
aF0.257601
aF0.646617
aa(lp930
F0.158394
aF0.174491
aF0.490803
aF0.210626
aF0.461563
aF0.705059
aF0.0
aF0.510521
aF0.515147
aF0.59812
aF0.914009
aF0.405898
aF0.488095
aa(lp931
F0.173886
aF0.457311
aF0.19131
aF0.076492
aF0.507737
aF0.691255
aF0.0
aF0.03893
aF0.849015
aF0.966835
aF0.823802
aF0.677997
aF0.895135
aa(lp932
F0.067218
aF0.142452
aF0.528101
aF0.042469
aF0.336032
aF0.937553
aF0.890603
aF0.0
aF0.451613
aF0.715804
aF0.77985
aF0.884527
aF0.534027
aa(lp933
F0.08685
aF0.205577
aF0.092291
aF0.495031
aF0.196648
aF0.74597
aF0.0
aF0.521811
aF0.350654
aF0.983528
aF0.8194
aF0.894146
aF0.902344
aa(lp934
F0.133655
aF0.456297
aF0.494152
aF0.13636
aF0.482314
aF0.799858
aF0.0
aF0.617152
aF0.72004
aF0.907535
aF0.933427
aF0.789103
aF0.946165
aa(lp935
F0.100678
aF0.33823
aF0.19719
aF0.045365
aF0.418481
aF0.779599
aF0.0
aF0.50589
aF0.354525
aF0.867096
aF0.50292
aF0.88835
aF0.855192
aa(lp936
F0.033861
aF0.095352
aF0.874575
aF0.002313
aF0.087007
aF0.019275
aF0.0
aF0.586281
aF0.278776
aF0.782189
aF0.630984
aF0.794602
aF0.740332
aa(lp937
F0.107812
aF0.483387
aF0.171408
aF0.138249
aF0.540637
aF0.562692
aF0.0
aF0.426682
aF0.774343
aF0.959883
aF0.96174
aF0.727364
aF0.915291
aa(lp938
F0.130722
aF0.436528
aF0.136845
aF0.191668
aF0.526815
aF0.738099
aF0.0
aF0.367349
aF0.790379
aF0.9511
aF0.963309
aF0.677371
aF0.943083
aa(lp939
F0.16766
aF0.288647
aF0.196276
aF0.095084
aF0.374963
aF0.504929
aF0.0
aF0.016051
aF0.935463
aF0.989517
aF0.929694
aF0.710374
aF0.963368
aa(lp940
F0.036597
aF0.039811
aF0.364261
aF0.132533
aF0.4844
aF0.0
aF0.0
aF0.0
aF0.647732
aF0.374673
aF0.805074
aF0.753717
aF0.800852
aa(lp941
F0.116262
aF0.443075
aF0.116401
aF0.17885
aF0.513763
aF0.77181
aF0.0
aF0.180967
aF0.595714
aF0.944054
aF0.898253
aF0.696582
aF0.968158
aa(lp942
F0.17709
aF0.458892
aF0.118147
aF0.183442
aF0.573984
aF0.69986
aF0.0
aF0.127676
aF0.754442
aF0.934134
aF0.862918
aF0.635271
aF0.888762
aa(lp943
F0.180113
aF0.219405
aF0.068692
aF0.318146
aF0.313332
aF0.0
aF0.843719
aF0.0
aF0.31417
aF0.476301
aF0.786993
aF0.780582
aF0.627878
aa(lp944
F0.081132
aF0.323487
aF0.435259
aF0.069321
aF0.194617
aF0.007219
aF0.519709
aF0.0
aF0.815986
aF0.963023
aF0.984814
aF0.947752
aF0.951651
aa(lp945
F0.186672
aF0.463853
aF0.107744
aF0.086715
aF0.495572
aF0.479049
aF0.0
aF0.273812
aF0.630841
aF0.950024
aF0.992623
aF0.932067
aF0.905879
aa(lp946
F0.153308
aF0.447542
aF0.186363
aF0.164469
aF0.534396
aF0.417057
aF0.586136
aF0.0
aF0.696384
aF0.525926
aF0.967931
aF0.754651
aF0.743459
aa(lp947
F0.115588
aF0.171415
aF0.212871
aF0.178467
aF0.472995
aF0.864925
aF0.0
aF0.521521
aF0.308348
aF0.967259
aF0.844906
aF0.769711
aF0.943462
aa(lp948
F0.146074
aF0.417599
aF0.251859
aF0.175498
aF0.61025
aF0.729841
aF0.0
aF0.031567
aF0.745188
aF0.974023
aF0.857236
aF0.651678
aF0.890321
aa(lp949
F0.463983
aF0.440845
aF0.073296
aF0.612991
aF0.443746
aF0.596122
aF0.0
aF0.216222
aF0.70533
aF0.820799
aF0.96639
aF0.94761
aF0.812122
aa(lp950
F0.036597
aF0.039811
aF0.364261
aF0.132533
aF0.4844
aF0.0
aF0.0
aF0.0
aF0.647732
aF0.374673
aF0.805074
aF0.753717
aF0.800852
aa(lp951
F0.155678
aF0.413679
aF0.487687
aF0.069562
aF0.50755
aF0.780532
aF0.288376
aF0.0
aF0.527168
aF0.815432
aF0.562191
aF0.692456
aF0.818996
aa(lp952
F0.118754
aF0.199287
aF0.461662
aF0.191755
aF0.515531
aF0.656268
aF0.0
aF0.523435
aF0.724646
aF0.954444
aF0.990589
aF0.953332
aF0.847078
aa(lp953
F0.490083
aF0.462702
aF0.449232
aF0.085694
aF0.569117
aF0.83727
aF0.0
aF0.557665
aF0.862079
aF0.973485
aF0.89301
aF0.703568
aF0.899729
aa(lp954
F0.149366
aF0.146135
aF0.203425
aF0.20448
aF0.478339
aF0.820743
aF0.0
aF0.642191
aF0.660038
aF0.891457
aF0.871222
aF0.71967
aF0.965616
aa(lp955
F0.036597
aF0.039811
aF0.364261
aF0.132533
aF0.4844
aF0.0
aF0.0
aF0.0
aF0.647732
aF0.374673
aF0.805074
aF0.753717
aF0.800852
aa(lp956
F0.186495
aF0.145063
aF0.188721
aF0.154186
aF0.495675
aF0.883641
aF0.0
aF0.871383
aF0.873556
aF0.921035
aF0.751761
aF0.482418
aF0.946494
aa(lp957
F0.172123
aF0.289039
aF0.45109
aF0.104672
aF0.097615
aF0.853307
aF0.0
aF0.664175
aF0.866557
aF0.37691
aF0.757772
aF0.237421
aF0.389318
aa(lp958
F0.142656
aF0.479758
aF0.490978
aF0.141554
aF0.289197
aF0.565875
aF0.0
aF0.604614
aF0.709008
aF0.968926
aF0.895229
aF0.543176
aF0.923743
aa(lp959
F0.142208
aF0.197324
aF0.407531
aF0.145466
aF0.561524
aF0.82616
aF0.0
aF0.685917
aF0.828851
aF0.923002
aF0.875493
aF0.714068
aF0.947748
aa(lp960
F0.156725
aF0.187702
aF0.137304
aF0.178157
aF0.480793
aF0.675811
aF0.0
aF0.546091
aF0.452536
aF0.966935
aF0.958896
aF0.933049
aF0.828719
aa(lp961
F0.157871
aF0.480643
aF0.132438
aF0.157746
aF0.52732
aF0.441452
aF0.421005
aF0.0
aF0.595609
aF0.667378
aF0.927654
aF0.418327
aF0.831109
aa(lp962
F0.036597
aF0.039811
aF0.364261
aF0.132533
aF0.4844
aF0.0
aF0.0
aF0.0
aF0.647732
aF0.374673
aF0.805074
aF0.753717
aF0.800852
aa(lp963
F0.154014
aF0.21994
aF0.165855
aF0.140474
aF0.505575
aF0.762472
aF0.0
aF0.79141
aF0.625061
aF0.982894
aF0.879781
aF0.870253
aF0.932608
aa(lp964
F0.548953
aF0.177636
aF0.559107
aF0.180519
aF0.502574
aF0.772699
aF0.323805
aF0.0
aF0.750258
aF0.95872
aF0.850497
aF0.722133
aF0.792804
aa(lp965
F0.036597
aF0.039811
aF0.364261
aF0.132533
aF0.4844
aF0.0
aF0.0
aF0.0
aF0.647732
aF0.374673
aF0.805074
aF0.753717
aF0.800852
aa(lp966
F0.111871
aF0.433142
aF0.188221
aF0.197145
aF0.322227
aF0.70372
aF0.0
aF0.122183
aF0.541296
aF0.950373
aF0.985912
aF0.857552
aF0.954446
aa(lp967
F0.113089
aF0.436322
aF0.402531
aF0.182871
aF0.53154
aF0.630722
aF0.196893
aF0.0
aF0.740199
aF0.971332
aF0.969328
aF0.683605
aF0.902844
aa(lp968
F0.075753
aF0.147587
aF0.396976
aF0.201115
aF0.533018
aF0.057889
aF0.0
aF0.016734
aF0.609721
aF0.428067
aF0.514898
aF0.187546
aF0.708702
aa(lp969
F0.411749
aF0.190588
aF0.623193
aF0.087472
aF0.48993
aF0.442321
aF0.0
aF0.047755
aF0.755276
aF0.880176
aF0.784734
aF0.475291
aF0.865626
aa(lp970
F0.156597
aF0.470028
aF0.131621
aF0.082366
aF0.260791
aF0.755423
aF0.0
aF0.0
aF0.513126
aF0.699751
aF0.870654
aF0.820232
aF0.389003
aa(lp971
F0.044536
aF0.526989
aF0.192398
aF0.189028
aF0.154256
aF0.870325
aF0.0
aF0.0
aF0.150475
aF0.156011
aF0.797972
aF0.60064
aF0.160506
aa(lp972
F0.105562
aF0.155939
aF0.527575
aF0.484446
aF0.5472
aF0.639016
aF0.44006
aF0.0
aF0.690631
aF0.819478
aF0.954747
aF0.476794
aF0.742535
aa(lp973
F0.115335
aF0.165772
aF0.133934
aF0.543706
aF0.412003
aF0.887389
aF0.418507
aF0.0
aF0.724068
aF0.380214
aF0.727803
aF0.378255
aF0.421649
aa(lp974
F0.110752
aF0.469541
aF0.163371
aF0.221958
aF0.50138
aF0.659888
aF0.02281
aF0.0
aF0.692154
aF0.983972
aF0.963582
aF0.89914
aF0.926166
aa(lp975
F0.085628
aF0.171874
aF0.138248
aF0.52529
aF0.513647
aF0.483107
aF0.401628
aF0.0
aF0.629194
aF0.960562
aF0.951359
aF0.628229
aF0.902504
aa(lp976
F0.070021
aF0.130187
aF0.380218
aF0.459532
aF0.066332
aF0.849925
aF0.6633
aF0.0
aF0.541895
aF0.752587
aF0.883892
aF0.899773
aF0.808503
aa(lp977
F0.099368
aF0.065322
aF0.146701
aF0.054038
aF0.725349
aF0.0
aF0.0
aF0.0
aF0.324171
aF0.913286
aF0.500789
aF0.763453
aF0.873805
aa(lp978
F0.036597
aF0.039811
aF0.364261
aF0.132533
aF0.4844
aF0.0
aF0.0
aF0.0
aF0.647732
aF0.374673
aF0.805074
aF0.753717
aF0.800852
aa(lp979
F0.030214
aF0.213633
aF0.138658
aF0.364449
aF0.371107
aF0.838983
aF0.0
aF0.789226
aF0.090571
aF0.703268
aF0.52619
aF0.511466
aF0.782049
aa(lp980
F0.546781
aF0.444802
aF0.148684
aF0.489034
aF0.225834
aF0.917845
aF0.0
aF0.119353
aF0.748384
aF0.529929
aF0.822276
aF0.5324
aF0.628079
aa(lp981
F0.393717
aF0.508828
aF0.123991
aF0.112283
aF0.568299
aF0.579796
aF0.0
aF0.588362
aF0.81336
aF0.73284
aF0.896288
aF0.529567
aF0.801305
aa(lp982
F0.11362
aF0.233678
aF0.495252
aF0.177771
aF0.496046
aF0.605339
aF0.0
aF0.771152
aF0.479109
aF0.936129
aF0.964662
aF0.885737
aF0.925545
aa(lp983
F0.162658
aF0.530312
aF0.479558
aF0.036085
aF0.483846
aF0.514679
aF0.0
aF0.084273
aF0.798503
aF0.792556
aF0.835516
aF0.639311
aF0.810301
aa(lp984
F0.141592
aF0.363419
aF0.072721
aF0.103142
aF0.361232
aF0.645582
aF0.0
aF0.434854
aF0.554727
aF0.799924
aF0.638765
aF0.434455
aF0.876684
aa(lp985
F0.036597
aF0.039811
aF0.364261
aF0.132533
aF0.4844
aF0.0
aF0.0
aF0.0
aF0.647732
aF0.374673
aF0.805074
aF0.753717
aF0.800852
aa(lp986
F0.163153
aF0.422814
aF0.441373
aF0.099798
aF0.511066
aF0.565624
aF0.0
aF0.246606
aF0.774888
aF0.914577
aF0.961387
aF0.482529
aF0.932797
aa(lp987
F0.113246
aF0.156239
aF0.697348
aF0.225388
aF0.482941
aF0.759428
aF0.0
aF0.725811
aF0.560349
aF0.685765
aF0.884525
aF0.60037
aF0.881069
aa(lp988
F0.117418
aF0.233655
aF0.182735
aF0.18102
aF0.465712
aF0.630982
aF0.488579
aF0.0
aF0.658783
aF0.945013
aF0.896982
aF0.742
aF0.935641
aa(lp989
F0.133744
aF0.208524
aF0.437542
aF0.165801
aF0.520738
aF0.555425
aF0.0
aF0.553731
aF0.822696
aF0.979815
aF0.785642
aF0.71585
aF0.896157
aa(lp990
F0.143617
aF0.46122
aF0.399354
aF0.15377
aF0.465562
aF0.285686
aF0.074892
aF0.0
aF0.241498
aF0.896891
aF0.892235
aF0.667061
aF0.985153
aa(lp991
F0.130668
aF0.257572
aF0.442413
aF0.150073
aF0.299786
aF0.72486
aF0.0
aF0.71572
aF0.789026
aF0.954554
aF0.980024
aF0.800961
aF0.954202
aa(lp992
F0.443119
aF0.201543
aF0.203286
aF0.148298
aF0.49223
aF0.667521
aF0.0
aF0.002825
aF0.708044
aF0.865878
aF0.754024
aF0.42308
aF0.802153
aa(lp993
F0.175929
aF0.290682
aF0.205038
aF0.09584
aF0.471472
aF0.606316
aF0.0
aF0.562562
aF0.701598
aF0.884516
aF0.967888
aF0.638763
aF0.878045
aa(lp994
F0.183964
aF0.471314
aF0.130193
aF0.071963
aF0.470208
aF0.679129
aF0.0
aF0.577676
aF0.877603
aF0.947847
aF0.875474
aF0.466953
aF0.89353
aa(lp995
F0.39326
aF0.229782
aF0.475496
aF0.135946
aF0.461234
aF0.601736
aF0.0
aF0.009763
aF0.521892
aF0.930773
aF0.957948
aF0.874356
aF0.936832
aa(lp996
F0.440742
aF0.457228
aF0.125771
aF0.103955
aF0.510605
aF0.608277
aF0.0
aF0.017148
aF0.723713
aF0.042086
aF0.636414
aF0.336211
aF0.414102
aa(lp997
F0.147262
aF0.472013
aF0.409444
aF0.185989
aF0.580611
aF0.789829
aF0.002184
aF0.0
aF0.699138
aF0.86481
aF0.927025
aF0.891972
aF0.880419
aa(lp998
F0.217828
aF0.257563
aF0.100862
aF0.176677
aF0.531265
aF0.694648
aF0.0
aF0.173002
aF0.93514
aF0.952639
aF0.597249
aF0.567108
aF0.847631
aa(lp999
F0.198349
aF0.221449
aF0.177874
aF0.118128
aF0.515292
aF0.805497
aF0.0
aF0.015649
aF0.749202
aF0.969242
aF0.708036
aF0.43537
aF0.887858
aa(lp1000
F0.105316
aF0.131787
aF0.218834
aF0.264133
aF0.497962
aF0.579262
aF0.0
aF0.771422
aF0.604431
aF0.702129
aF0.736048
aF0.254602
aF0.859659
aa(lp1001
F0.099917
aF0.203686
aF0.140526
aF0.127533
aF0.562967
aF0.499414
aF0.0
aF0.83543
aF0.799151
aF0.805634
aF0.855411
aF0.79825
aF0.962131
aa(lp1002
F0.036597
aF0.039811
aF0.364261
aF0.132533
aF0.4844
aF0.0
aF0.0
aF0.0
aF0.647732
aF0.374673
aF0.805074
aF0.753717
aF0.800852
aa(lp1003
F0.450075
aF0.14591
aF0.228577
aF0.197222
aF0.456601
aF0.574495
aF0.0
aF0.383738
aF0.510326
aF0.932253
aF0.962341
aF0.907292
aF0.844979
aa(lp1004
F0.151027
aF0.1748
aF0.22827
aF0.110111
aF0.534763
aF0.847922
aF0.0
aF0.744786
aF0.928347
aF0.958674
aF0.908278
aF0.807157
aF0.969355
aa(lp1005
F0.200776
aF0.193762
aF0.206787
aF0.100452
aF0.530456
aF0.769561
aF0.0
aF0.50589
aF0.825448
aF0.944644
aF0.638277
aF0.878091
aF0.976697
aa(lp1006
F0.125334
aF0.537634
aF0.173396
aF0.155661
aF0.526945
aF0.698495
aF0.0
aF0.009157
aF0.803408
aF0.9699
aF0.9678
aF0.864343
aF0.904727
aa(lp1007
F0.134214
aF0.196903
aF0.462406
aF0.147977
aF0.481527
aF0.009743
aF0.0
aF0.611712
aF0.580343
aF0.936081
aF0.911304
aF0.792613
aF0.853497
aa(lp1008
F0.099524
aF0.412825
aF0.685552
aF0.204792
aF0.488438
aF0.347781
aF0.0
aF0.306361
aF0.731506
aF0.868881
aF0.895486
aF0.591043
aF0.682912
aa(lp1009
F0.112924
aF0.451183
aF0.538499
aF0.488339
aF0.431667
aF0.823218
aF0.0
aF0.15997
aF0.761291
aF0.722186
aF0.924506
aF0.438809
aF0.724436
aa(lp1010
F0.143263
aF0.188468
aF0.155479
aF0.181507
aF0.532989
aF0.830555
aF0.0
aF0.322356
aF0.508859
aF0.897647
aF0.899085
aF0.621658
aF0.920566
aa(lp1011
F0.129951
aF0.429932
aF0.211181
aF0.183828
aF0.495254
aF0.580247
aF0.0
aF0.512414
aF0.539331
aF0.872623
aF0.784795
aF0.478241
aF0.853112
aa(lp1012
F0.488762
aF0.172117
aF0.15148
aF0.270764
aF0.208973
aF0.941745
aF0.0
aF0.073227
aF0.716281
aF0.794867
aF0.861744
aF0.307431
aF0.894883
aa(lp1013
F0.410185
aF0.195945
aF0.551827
aF0.14996
aF0.470126
aF0.552123
aF0.0
aF0.425338
aF0.636986
aF0.971534
aF0.675697
aF0.45023
aF0.931459
aa(lp1014
F0.199492
aF0.166025
aF0.505817
aF0.16513
aF0.492012
aF0.787614
aF0.72621
aF0.0
aF0.71006
aF0.983623
aF0.774575
aF0.700477
aF0.876887
aa(lp1015
F0.418292
aF0.433765
aF0.153535
aF0.162504
aF0.493751
aF0.80329
aF0.0
aF0.528206
aF0.68064
aF0.990215
aF0.738421
aF0.611661
aF0.898272
aa(lp1016
F0.152405
aF0.480732
aF0.199539
aF0.11113
aF0.468668
aF0.796601
aF0.0
aF0.686441
aF0.810608
aF0.982951
aF0.835116
aF0.689816
aF0.968856
aa(lp1017
F0.11941
aF0.429961
aF0.416237
aF0.172935
aF0.540516
aF0.683607
aF0.225331
aF0.0
aF0.71289
aF0.910873
aF0.958461
aF0.918491
aF0.930093
aa(lp1018
F0.409148
aF0.163263
aF0.508139
aF0.216609
aF0.443712
aF0.728471
aF0.0
aF0.296258
aF0.458541
aF0.803368
aF0.922512
aF0.842604
aF0.648732
aa(lp1019
F0.158307
aF0.190939
aF0.139665
aF0.167909
aF0.520907
aF0.592952
aF0.0
aF0.798618
aF0.694111
aF0.934355
aF0.860088
aF0.774881
aF0.955531
aa(lp1020
F0.426437
aF0.17548
aF0.180492
aF0.50263
aF0.485394
aF0.785433
aF0.0
aF0.446761
aF0.686811
aF0.747446
aF0.566658
aF0.249842
aF0.773909
aa(lp1021
F0.036597
aF0.039811
aF0.364261
aF0.132533
aF0.4844
aF0.0
aF0.0
aF0.0
aF0.647732
aF0.374673
aF0.805074
aF0.753717
aF0.800852
aa(lp1022
F0.135148
aF0.513927
aF0.480637
aF0.102982
aF0.490335
aF0.467309
aF0.0
aF0.21754
aF0.739415
aF0.968845
aF0.850738
aF0.711774
aF0.910996
aa(lp1023
F0.155836
aF0.458543
aF0.432677
aF0.085915
aF0.480686
aF0.602709
aF0.0
aF0.449405
aF0.782721
aF0.920406
aF0.883218
aF0.343089
aF0.91279
aa(lp1024
F0.190552
aF0.224357
aF0.479343
aF0.09532
aF0.340416
aF0.731722
aF0.0
aF0.825188
aF0.956483
aF0.875893
aF0.449357
aF0.661909
aF0.685598
aa(lp1025
F0.036597
aF0.039811
aF0.364261
aF0.132533
aF0.4844
aF0.0
aF0.0
aF0.0
aF0.647732
aF0.374673
aF0.805074
aF0.753717
aF0.800852
aa(lp1026
F0.201444
aF0.422764
aF0.177676
aF0.154261
aF0.506979
aF0.534145
aF0.0
aF0.43858
aF0.736775
aF0.914971
aF0.885225
aF0.67906
aF0.942461
aa(lp1027
F0.19173
aF0.224569
aF0.215443
aF0.216788
aF0.257221
aF0.875991
aF0.0
aF0.092991
aF0.852056
aF0.929361
aF0.889161
aF0.69639
aF0.945972
aa(lp1028
F0.411222
aF0.630607
aF0.141628
aF0.234545
aF0.228519
aF0.741104
aF0.424875
aF0.0
aF0.429786
aF0.812306
aF0.770781
aF0.415422
aF0.90091
aa(lp1029
F0.458963
aF0.44981
aF0.163741
aF0.151451
aF0.448273
aF0.566884
aF0.0
aF0.175192
aF0.887989
aF0.954454
aF0.989124
aF0.846725
aF0.93574
aa(lp1030
F0.090553
aF0.134781
aF0.127572
aF0.490433
aF0.282992
aF0.567053
aF0.150396
aF0.0
aF0.452461
aF0.921752
aF0.942781
aF0.809132
aF0.820725
aa(lp1031
F0.266577
aF0.685795
aF0.069537
aF0.00024
aF0.148963
aF0.5905
aF0.0
aF0.51835
aF0.770024
aF0.340459
aF0.912996
aF0.656621
aF0.702649
aa(lp1032
F0.235175
aF0.16299
aF0.496892
aF0.204203
aF0.238231
aF0.846539
aF0.0
aF0.249184
aF0.87094
aF0.986274
aF0.284099
aF0.494058
aF0.842755
aa(lp1033
F0.147086
aF0.218943
aF0.146293
aF0.217645
aF0.349352
aF0.776012
aF0.0
aF0.535929
aF0.582397
aF0.412531
aF0.746683
aF0.360382
aF0.598303
aa(lp1034
F0.214158
aF0.240042
aF0.166132
aF0.074856
aF0.584629
aF0.71719
aF0.0
aF0.380448
aF0.583246
aF0.895979
aF0.530024
aF0.373917
aF0.932536
aa(lp1035
F0.092459
aF0.175497
aF0.562674
aF0.145145
aF0.155607
aF0.17373
aF0.0
aF0.073314
aF0.581719
aF0.809476
aF0.769204
aF0.755001
aF0.614657
aa(lp1036
F0.168649
aF0.19521
aF0.094933
aF0.202634
aF0.546616
aF0.713989
aF0.561617
aF0.0
aF0.477908
aF0.739601
aF0.960294
aF0.813785
aF0.7447
aa(lp1037
F0.157107
aF0.444719
aF0.172944
aF0.219434
aF0.469702
aF0.14561
aF0.0
aF0.668872
aF0.829676
aF0.423384
aF0.793276
aF0.201934
aF0.725806
aa(lp1038
F0.171204
aF0.442445
aF0.401974
aF0.159561
aF0.486099
aF0.612575
aF0.0
aF0.339003
aF0.801273
aF0.959531
aF0.775811
aF0.523997
aF0.859424
aa(lp1039
F0.173733
aF0.177581
aF0.103447
aF0.233654
aF0.472932
aF0.558506
aF0.0
aF0.152431
aF0.702073
aF0.916158
aF0.948902
aF0.809453
aF0.958726
aa(lp1040
F0.388587
aF0.21138
aF0.453096
aF0.101759
aF0.495072
aF0.450587
aF0.0
aF0.181608
aF0.8238
aF0.935291
aF0.913896
aF0.544554
aF0.822457
aa(lp1041
F0.155979
aF0.464227
aF0.14916
aF0.070368
aF0.522698
aF0.397704
aF0.0
aF0.197057
aF0.74608
aF0.779959
aF0.936655
aF0.686759
aF0.81969
aa(lp1042
F0.14426
aF0.255177
aF0.176955
aF0.110566
aF0.529324
aF0.559242
aF0.0
aF0.056055
aF0.725828
aF0.954422
aF0.938603
aF0.46152
aF0.962508
aa(lp1043
F0.140424
aF0.163773
aF0.163733
aF0.211691
aF0.541319
aF0.373598
aF0.0
aF0.269441
aF0.719992
aF0.879525
aF0.857353
aF0.70421
aF0.714105
aa(lp1044
F0.078628
aF0.304818
aF0.389037
aF0.213193
aF0.134886
aF0.0
aF0.0
aF0.0
aF0.551266
aF0.931665
aF0.914137
aF0.796063
aF0.945431
aa(lp1045
F0.425645
aF0.168292
aF0.469234
aF0.200007
aF0.538928
aF0.801697
aF0.0
aF0.174462
aF0.533501
aF0.918134
aF0.859806
aF0.686692
aF0.931282
aa(lp1046
F0.070417
aF0.06308
aF0.464693
aF0.49711
aF0.208096
aF0.559503
aF0.0
aF0.033669
aF0.798687
aF0.655043
aF0.841114
aF0.303174
aF0.620557
aa(lp1047
F0.14251
aF0.183818
aF0.198135
aF0.075347
aF0.575298
aF0.731188
aF0.0
aF0.006808
aF0.752315
aF0.98669
aF0.966681
aF0.886555
aF0.931432
aa(lp1048
F0.117112
aF0.408747
aF0.403276
aF0.199293
aF0.514344
aF0.848776
aF0.0
aF0.351129
aF0.954276
aF0.86966
aF0.797528
aF0.962029
aF0.823992
aa(lp1049
F0.127444
aF0.438411
aF0.222555
aF0.201672
aF0.48649
aF0.581981
aF0.0
aF0.270744
aF0.616531
aF0.940448
aF0.935195
aF0.758704
aF0.90028
aa(lp1050
F0.138846
aF0.200882
aF0.418278
aF0.125981
aF0.526318
aF0.820923
aF0.022061
aF0.0
aF0.548545
aF0.928502
aF0.773417
aF0.644157
aF0.94912
aa(lp1051
F0.185079
aF0.21171
aF0.104812
aF0.080684
aF0.551291
aF0.605534
aF0.0
aF0.067286
aF0.739725
aF0.942282
aF0.979102
aF0.685821
aF0.971027
aa(lp1052
F0.106185
aF0.179606
aF0.195652
aF0.209112
aF0.493266
aF0.700103
aF0.0
aF0.250937
aF0.307811
aF0.862163
aF0.827962
aF0.757794
aF0.973004
aa(lp1053
F0.185079
aF0.21171
aF0.104812
aF0.080684
aF0.551291
aF0.605534
aF0.0
aF0.067286
aF0.739725
aF0.942282
aF0.979102
aF0.685821
aF0.971027
aa(lp1054
F0.152229
aF0.40258
aF0.44246
aF0.134535
aF0.343116
aF0.0
aF0.0
aF0.287007
aF0.901001
aF0.93363
aF0.880386
aF0.846142
aF0.941298
aa(lp1055
F0.132092
aF0.41945
aF0.160381
aF0.164282
aF0.466718
aF0.252569
aF0.000403
aF0.0
aF0.852319
aF0.972414
aF0.876874
aF0.822516
aF0.786313
aa(lp1056
F0.11774
aF0.244046
aF0.496308
aF0.155522
aF0.276889
aF0.787118
aF0.0
aF0.405018
aF0.665034
aF0.92723
aF0.704391
aF0.866479
aF0.780897
aa(lp1057
F0.209525
aF0.477095
aF0.090093
aF0.142431
aF0.469756
aF0.664343
aF0.0
aF0.536408
aF0.864517
aF0.260371
aF0.810108
aF0.490614
aF0.408022
aa(lp1058
F0.401134
aF0.516492
aF0.560842
aF0.1024
aF0.290048
aF0.622664
aF0.0
aF0.489114
aF0.741054
aF0.938717
aF0.813261
aF0.540977
aF0.866336
aa(lp1059
F0.177095
aF0.233885
aF0.19283
aF0.144226
aF0.512762
aF0.339568
aF0.365789
aF0.0
aF0.741077
aF0.990519
aF0.843905
aF0.619893
aF0.896359
aa(lp1060
F0.200919
aF0.167695
aF0.105154
aF0.137243
aF0.518361
aF0.785323
aF0.0
aF0.015318
aF0.388051
aF0.995223
aF0.71958
aF0.817162
aF0.912384
aa(lp1061
F0.432881
aF0.459117
aF0.175234
aF0.25269
aF0.228068
aF0.774074
aF0.339212
aF0.0
aF0.758238
aF0.439057
aF0.821845
aF0.442558
aF0.533056
aa(lp1062
F0.149512
aF0.148167
aF0.157353
aF0.258101
aF0.473968
aF0.65511
aF0.0
aF0.520602
aF0.698514
aF0.981456
aF0.759999
aF0.442723
aF0.96227
aa(lp1063
F0.034576
aF0.162604
aF0.144456
aF0.274186
aF0.456966
aF0.389087
aF0.0
aF0.786789
aF0.202132
aF0.89493
aF0.284201
aF0.076437
aF0.724131
aa(lp1064
F0.469894
aF0.447018
aF0.142723
aF0.123716
aF0.546214
aF0.719936
aF0.0
aF0.76063
aF0.720058
aF0.891617
aF0.986682
aF0.66216
aF0.976508
aa(lp1065
F0.160615
aF0.140337
aF0.350262
aF0.007035
aF0.501686
aF0.719865
aF0.0
aF0.597317
aF0.645855
aF0.159
aF0.151664
aF0.208947
aF0.54922
aa(lp1066
F0.131181
aF0.432566
aF0.224475
aF0.001291
aF0.410622
aF0.106508
aF0.0
aF0.493787
aF0.588745
aF0.81534
aF0.945454
aF0.841553
aF0.876221
aa(lp1067
F0.383929
aF0.38658
aF0.160662
aF0.001864
aF0.23221
aF0.827853
aF0.0
aF0.775112
aF0.761562
aF0.896152
aF0.816627
aF0.834513
aF0.934224
aa(lp1068
F0.163904
aF0.486294
aF0.04063
aF0.16629
aF0.218206
aF0.687953
aF0.0
aF0.686656
aF0.537077
aF0.147758
aF0.357531
aF0.120221
aF0.67545
aa(lp1069
F0.101443
aF0.071695
aF0.19186
aF0.151956
aF0.545624
aF0.785783
aF0.841168
aF0.0
aF0.762451
aF0.976987
aF0.514308
aF0.292772
aF0.948016
aa(lp1070
F0.06172
aF0.043675
aF0.081117
aF0.030137
aF0.841707
aF0.285906
aF0.0
aF0.0
aF0.152841
aF0.256198
aF0.291151
aF0.318569
aF0.444789
aa(lp1071
F0.134867
aF0.084492
aF0.408913
aF0.523847
aF0.484873
aF0.622054
aF0.0
aF0.465459
aF0.535091
aF0.671862
aF0.528082
aF0.721174
aF0.628206
aa(lp1072
F0.244067
aF0.416102
aF0.079757
aF0.005484
aF0.393225
aF0.712975
aF0.109917
aF0.0
aF0.661541
aF0.275293
aF0.776201
aF0.332493
aF0.25814
aa(lp1073
F0.366637
aF0.317763
aF0.044676
aF0.005891
aF0.403161
aF0.852808
aF0.0
aF0.524716
aF0.52556
aF0.886282
aF0.970523
aF0.78614
aF0.857281
aa(lp1074
F0.017714
aF0.472987
aF0.01254
aF0.137579
aF0.414572
aF0.0
aF0.123862
aF0.0
aF0.316449
aF0.532935
aF0.943225
aF0.48824
aF0.861019
aa(lp1075
F0.109392
aF0.187501
aF0.13286
aF0.294488
aF0.487087
aF0.672622
aF0.0
aF0.0
aF0.356608
aF0.857261
aF0.83505
aF0.857573
aF0.784403
aa(lp1076
F0.451808
aF0.071731
aF0.160649
aF0.00742
aF0.440167
aF0.0
aF0.0
aF0.831111
aF0.530972
aF0.214035
aF0.542478
aF0.06959
aF0.502862
aa(lp1077
F0.290656
aF0.152056
aF0.428765
aF0.026065
aF0.215891
aF0.368541
aF0.554113
aF0.0
aF0.673661
aF0.816077
aF0.542629
aF0.876547
aF0.775608
aa(lp1078
F0.313023
aF0.212409
aF0.340653
aF0.085193
aF0.175072
aF0.537681
aF0.0
aF0.669729
aF0.090807
aF0.46626
aF0.803694
aF0.813704
aF0.480573
aa(lp1079
F0.220096
aF0.667713
aF0.079283
aF0.019821
aF0.1643
aF0.46351
aF0.0
aF0.0
aF0.073099
aF0.305946
aF0.648315
aF0.709939
aF0.410413
aa(lp1080
F0.136035
aF0.462131
aF0.138206
aF0.239932
aF0.52165
aF0.556759
aF0.0
aF0.441663
aF0.470725
aF0.666955
aF0.705704
aF0.265102
aF0.884926
aa(lp1081
F0.340729
aF0.232975
aF0.406276
aF0.001387
aF0.211914
aF0.562324
aF0.0
aF0.733641
aF0.872396
aF0.280489
aF0.572921
aF0.311873
aF0.513165
aa(lp1082
F0.091295
aF0.050026
aF0.054535
aF0.467009
aF0.382605
aF0.0
aF0.0
aF0.0
aF0.009158
aF0.125025
aF0.304955
aF0.500405
aF0.293913
aa(lp1083
F0.244067
aF0.416102
aF0.079757
aF0.005484
aF0.393225
aF0.712975
aF0.109917
aF0.0
aF0.661541
aF0.275293
aF0.776201
aF0.332493
aF0.25814
aa(lp1084
F0.250152
aF0.603396
aF0.179281
aF0.016185
aF0.08715
aF0.003726
aF0.484053
aF0.0
aF0.295649
aF0.850598
aF0.903087
aF0.807109
aF0.786771
aa(lp1085
F0.065819
aF0.510318
aF0.186955
aF0.095109
aF0.234954
aF0.687768
aF0.0
aF0.0
aF0.745163
aF0.908688
aF0.774639
aF0.488851
aF0.806125
aa(lp1086
F0.160237
aF0.278051
aF0.106925
aF0.293345
aF0.197659
aF0.220068
aF0.0
aF0.795534
aF0.383963
aF0.312635
aF0.790492
aF0.214678
aF0.554702
aa(lp1087
F0.234954
aF0.340806
aF0.108985
aF0.182764
aF0.237015
aF0.798195
aF0.0
aF0.183496
aF0.84313
aF0.630503
aF0.985919
aF0.477142
aF0.806241
aa(lp1088
F0.111574
aF0.11782
aF0.200097
aF0.306489
aF0.562819
aF0.190491
aF0.0
aF0.564885
aF0.238701
aF0.402378
aF0.415889
aF0.473638
aF0.574621
aa(lp1089
F0.059666
aF0.072668
aF0.068286
aF0.106199
aF0.763338
aF0.311938
aF0.0
aF0.394761
aF0.381229
aF0.916811
aF0.506749
aF0.477057
aF0.863221
aa(lp1090
F0.140447
aF0.645882
aF0.168343
aF0.051199
aF0.074879
aF0.0
aF0.0
aF0.874805
aF0.316489
aF0.784917
aF0.830923
aF0.650834
aF0.986654
aa(lp1091
F0.039466
aF0.487723
aF0.143643
aF0.141575
aF0.25291
aF0.544667
aF0.0
aF0.456405
aF0.258531
aF0.27606
aF0.588358
aF0.155937
aF0.579173
aa(lp1092
F0.163904
aF0.486294
aF0.04063
aF0.16629
aF0.218206
aF0.687953
aF0.0
aF0.686656
aF0.537077
aF0.147758
aF0.357531
aF0.120221
aF0.67545
aa(lp1093
F0.10924
aF0.068936
aF0.172573
aF0.436289
aF0.469644
aF0.572355
aF0.0
aF0.132549
aF0.756434
aF0.946601
aF0.319794
aF0.633818
aF0.864008
aa(lp1094
F0.249452
aF0.089191
aF0.061772
aF0.019831
aF0.668421
aF0.897151
aF0.0
aF0.647781
aF0.640581
aF0.530828
aF0.857584
aF0.408993
aF0.837334
aa(lp1095
F0.156009
aF0.118788
aF0.08372
aF0.601796
aF0.118482
aF0.499814
aF0.0
aF0.70397
aF0.828971
aF0.774981
aF0.983187
aF0.683432
aF0.684234
aa(lp1096
F0.266562
aF0.52841
aF0.134648
aF0.019294
aF0.125041
aF0.383221
aF0.0
aF0.561901
aF0.341501
aF0.878417
aF0.344311
aF0.271735
aF0.614709
aa(lp1097
F0.041834
aF0.028466
aF0.086254
aF0.247386
aF0.654862
aF0.003726
aF0.0
aF0.952443
aF0.383423
aF0.431714
aF0.841491
aF0.397266
aF0.889094
aa(lp1098
F0.296272
aF0.157225
aF0.456063
aF0.025715
aF0.171185
aF0.381602
aF0.0
aF0.0
aF0.346717
aF0.067991
aF0.475643
aF0.099397
aF0.269961
aa(lp1099
F0.080033
aF0.054539
aF0.21332
aF0.169783
aF0.557067
aF0.1608
aF0.0
aF0.0
aF0.816862
aF0.422095
aF0.896041
aF0.657336
aF0.523592
aa(lp1100
F0.254014
aF0.491691
aF0.178374
aF0.004034
aF0.249199
aF0.0
aF0.0
aF0.509846
aF0.384523
aF0.64697
aF0.594685
aF0.629906
aF0.723084
aa(lp1101
F0.266382
aF0.026384
aF0.186264
aF0.209608
aF0.397616
aF0.0
aF0.0
aF0.84639
aF0.414126
aF0.821338
aF0.216601
aF0.079279
aF0.928341
aa(lp1102
F0.242986
aF0.526781
aF0.022862
aF0.000911
aF0.336237
aF0.0
aF0.0
aF0.250937
aF0.879799
aF0.885069
aF0.941341
aF0.90112
aF0.791899
aa(lp1103
F0.297583
aF0.339698
aF0.101375
aF0.165938
aF0.185958
aF0.0
aF0.0
aF0.0
aF0.48955
aF0.421517
aF0.621725
aF0.211781
aF0.778111
aa(lp1104
F0.185622
aF0.60617
aF0.239617
aF0.021681
aF0.068656
aF0.370724
aF0.0
aF0.185698
aF0.197559
aF0.814205
aF0.83258
aF0.63331
aF0.802783
aa(lp1105
F0.099782
aF0.12094
aF0.205473
aF0.32845
aF0.316221
aF0.551743
aF0.0
aF0.0
aF0.611226
aF0.730113
aF0.821292
aF0.868977
aF0.779063
aa(lp1106
F0.27602
aF0.32694
aF0.136947
aF0.025059
aF0.37686
aF0.603838
aF0.0
aF0.869163
aF0.957906
aF0.159135
aF0.860463
aF0.717858
aF0.469683
aa(lp1107
F0.114667
aF0.438155
aF0.116229
aF0.171885
aF0.555012
aF0.796149
aF0.0
aF0.712594
aF0.275291
aF0.341003
aF0.888363
aF0.163015
aF0.901373
aa(lp1108
F0.049608
aF0.032567
aF0.046295
aF0.157407
aF0.784577
aF0.53555
aF0.0
aF0.602408
aF0.052808
aF0.447353
aF0.749625
aF0.533916
aF0.94675
aa(lp1109
F0.07463
aF0.062551
aF0.254216
aF0.001811
aF0.762004
aF0.0
aF0.527341
aF0.0
aF0.284187
aF0.275098
aF0.202904
aF0.616158
aF0.244524
aa(lp1110
F0.066928
aF0.217944
aF0.052951
aF0.228556
aF0.502649
aF0.286475
aF0.479593
aF0.0
aF0.089225
aF0.423345
aF0.478348
aF0.111306
aF0.766315
aa(lp1111
F0.166447
aF0.099625
aF0.345954
aF0.010538
aF0.479385
aF0.774376
aF0.220589
aF0.0
aF0.307767
aF0.819954
aF0.982564
aF0.821173
aF0.825282
aa(lp1112
F0.488134
aF0.300694
aF0.049094
aF0.028712
aF0.236694
aF0.913766
aF0.0
aF0.341037
aF0.520762
aF0.494416
aF0.359938
aF0.118561
aF0.789537
aa(lp1113
F0.442474
aF0.03572
aF0.342755
aF0.210273
aF0.066544
aF0.93221
aF0.848841
aF0.0
aF0.051649
aF0.155586
aF0.144395
aF0.060995
aF0.952509
aa(lp1114
F0.090564
aF0.055547
aF0.033762
aF0.070352
aF0.803243
aF0.817542
aF0.0
aF0.0
aF0.409564
aF0.726847
aF0.117425
aF0.173425
aF0.853064
aa(lp1115
F0.4615
aF0.109608
aF0.225509
aF0.522423
aF0.246898
aF0.877123
aF0.0
aF0.677687
aF0.629001
aF0.406866
aF0.858198
aF0.116911
aF0.670555
aa(lp1116
F0.265497
aF0.498756
aF0.071215
aF0.083262
aF0.202087
aF0.882444
aF0.0
aF0.551112
aF0.911757
aF0.438763
aF0.972218
aF0.537567
aF0.623491
aa(lp1117
F0.259713
aF0.177846
aF0.275689
aF0.005834
aF0.438827
aF0.88897
aF0.0
aF0.686656
aF0.623551
aF0.156145
aF0.710469
aF0.175155
aF0.563315
aa(lp1118
F0.115297
aF0.398618
aF0.013319
aF0.024749
aF0.525281
aF0.0
aF0.0
aF0.686656
aF0.387787
aF0.512643
aF0.63223
aF0.288202
aF0.633775
aa(lp1119
F0.116781
aF0.15855
aF0.184907
aF0.31345
aF0.314611
aF0.942611
aF0.0
aF0.591158
aF0.943809
aF0.812417
aF0.927793
aF0.442343
aF0.689439
aa(lp1120
F0.105957
aF0.713284
aF0.04362
aF0.009178
aF0.245201
aF0.0
aF0.0
aF0.957723
aF0.490068
aF0.135311
aF0.793151
aF0.791281
aF0.53963
aa(lp1121
F0.316894
aF0.062889
aF0.055262
aF0.047891
aF0.606056
aF0.063109
aF0.0
aF0.0
aF0.911962
aF0.687009
aF0.733469
aF0.806175
aF0.831178
aa(lp1122
F0.085973
aF0.11966
aF0.147325
aF0.022588
aF0.757004
aF0.546257
aF0.282485
aF0.0
aF0.556122
aF0.952887
aF0.862816
aF0.887819
aF0.883702
aa(lp1123
F0.077038
aF0.173938
aF0.108338
aF0.1428
aF0.558006
aF0.148667
aF0.0
aF0.812967
aF0.086505
aF0.451946
aF0.264997
aF0.321599
aF0.421024
aa(lp1124
F0.170948
aF0.079709
aF0.16039
aF0.468654
aF0.503671
aF0.547966
aF0.0
aF0.250264
aF0.5017
aF0.518467
aF0.477981
aF0.038926
aF0.855611
aa(lp1125
F0.147208
aF0.07221
aF0.529946
aF0.114878
aF0.226564
aF0.330507
aF0.0
aF0.756502
aF0.413203
aF0.668701
aF0.74219
aF0.410888
aF0.784937
aa(lp1126
F0.049608
aF0.032567
aF0.046295
aF0.157407
aF0.784577
aF0.53555
aF0.0
aF0.602408
aF0.052808
aF0.447353
aF0.749625
aF0.533916
aF0.94675
aa(lp1127
F0.140447
aF0.645882
aF0.168343
aF0.051199
aF0.074879
aF0.0
aF0.0
aF0.874805
aF0.316489
aF0.784917
aF0.830923
aF0.650834
aF0.986654
aa(lp1128
F0.113301
aF0.169373
aF0.518681
aF0.01369
aF0.28664
aF0.542753
aF0.896363
aF0.0
aF0.790931
aF0.825236
aF0.834736
aF0.375138
aF0.902197
aa(lp1129
F0.327959
aF0.456359
aF0.022875
aF0.016334
aF0.291982
aF0.703261
aF0.0
aF0.253498
aF0.410812
aF0.775958
aF0.982224
aF0.909632
aF0.737023
aa(lp1130
F0.068023
aF0.105154
aF0.026241
aF0.711616
aF0.132239
aF0.023801
aF0.0
aF0.764224
aF0.3263
aF0.244354
aF0.853229
aF0.361966
aF0.618144
aa(lp1131
F0.220096
aF0.667713
aF0.079283
aF0.019821
aF0.1643
aF0.46351
aF0.0
aF0.0
aF0.073099
aF0.305946
aF0.648315
aF0.709939
aF0.410413
aa(lp1132
F0.15867
aF0.075768
aF0.086445
aF0.357201
aF0.351589
aF0.174395
aF0.0
aF0.0
aF0.304366
aF0.226669
aF0.95866
aF0.734389
aF0.900774
aa(lp1133
F0.155723
aF0.156916
aF0.130199
aF0.150439
aF0.544938
aF0.201961
aF0.0
aF0.052209
aF0.545002
aF0.948573
aF0.936093
aF0.894096
aF0.909341
aa(lp1134
F0.064095
aF0.077298
aF0.247243
aF0.215297
aF0.439917
aF0.765814
aF0.0
aF0.482029
aF0.27547
aF0.147765
aF0.217987
aF0.050507
aF0.593915
aa(lp1135
F0.134234
aF0.190303
aF0.130251
aF0.088504
aF0.542082
aF0.412077
aF0.599562
aF0.0
aF0.754089
aF0.919811
aF0.797361
aF0.861206
aF0.838784
aa(lp1136
F0.157575
aF0.226393
aF0.136486
aF0.452736
aF0.495996
aF0.643535
aF0.0
aF0.054674
aF0.543644
aF0.622792
aF0.855377
aF0.488033
aF0.705102
aa(lp1137
F0.128224
aF0.413379
aF0.140694
aF0.241273
aF0.546405
aF0.803658
aF0.0
aF0.536889
aF0.525737
aF0.701836
aF0.804317
aF0.231238
aF0.826072
aa(lp1138
F0.297838
aF0.109607
aF0.143256
aF0.097155
aF0.405388
aF0.0
aF0.037735
aF0.0
aF0.627051
aF0.235172
aF0.912791
aF0.743212
aF0.505965
aa(lp1139
F0.062561
aF0.194467
aF0.399099
aF0.013246
aF0.450914
aF0.004043
aF0.0
aF0.579049
aF0.483323
aF0.060682
aF0.158343
aF0.07299
aF0.216231
aa(lp1140
F0.049732
aF0.342334
aF0.23226
aF0.03693
aF0.456126
aF0.0
aF0.0
aF0.182282
aF0.537991
aF0.232823
aF0.871245
aF0.188152
aF0.821189
aa(lp1141
F0.128569
aF0.116578
aF0.133919
aF0.46682
aF0.542122
aF0.33819
aF0.0
aF0.690176
aF0.361019
aF0.798482
aF0.702309
aF0.154227
aF0.882467
aa(lp1142
F0.244067
aF0.416102
aF0.079757
aF0.005484
aF0.393225
aF0.712975
aF0.109917
aF0.0
aF0.661541
aF0.275293
aF0.776201
aF0.332493
aF0.25814
aa(lp1143
F0.063291
aF0.014893
aF0.138409
aF0.488955
aF0.380735
aF0.0
aF0.09144
aF0.0
aF0.20003
aF0.395609
aF0.537204
aF0.480076
aF0.731913
aa(lp1144
F0.156093
aF0.068779
aF0.075457
aF0.295764
aF0.610127
aF0.737528
aF0.0
aF0.898435
aF0.547667
aF0.048172
aF0.137192
aF0.205798
aF0.445856
aa(lp1145
F0.251676
aF0.328392
aF0.10665
aF0.01031
aF0.462974
aF0.344938
aF0.801423
aF0.0
aF0.786486
aF0.811472
aF0.902902
aF0.964092
aF0.846243
aa(lp1146
F0.035933
aF0.040154
aF0.090232
aF0.638603
aF0.23517
aF0.687768
aF0.727798
aF0.0
aF0.293035
aF0.990048
aF0.749389
aF0.821516
aF0.85801
aa(lp1147
F0.13942
aF0.127046
aF0.495795
aF0.012511
aF0.349955
aF0.0
aF0.0
aF0.702512
aF0.275308
aF0.779222
aF0.888866
aF0.720215
aF0.784054
aa(lp1148
F0.232327
aF0.220148
aF0.164248
aF0.119739
aF0.343701
aF0.0
aF0.0
aF0.647781
aF0.100111
aF0.727289
aF0.537655
aF0.567465
aF0.686119
aa(lp1149
F0.285419
aF0.186656
aF0.520439
aF0.001249
aF0.184459
aF0.690684
aF0.0
aF0.910127
aF0.897373
aF0.907933
aF0.875903
aF0.366204
aF0.848801
aa(lp1150
F0.338526
aF0.097
aF0.128401
aF0.330927
aF0.152751
aF0.829888
aF0.901785
aF0.0
aF0.482338
aF0.673319
aF0.763421
aF0.554392
aF0.762674
aa(lp1151
F0.20467
aF0.237131
aF0.156618
aF0.019696
aF0.525685
aF0.802429
aF0.0
aF0.0
aF0.052129
aF0.562829
aF0.273809
aF0.523574
aF0.607311
aa(lp1152
F0.155723
aF0.156916
aF0.130199
aF0.150439
aF0.544938
aF0.201961
aF0.0
aF0.052209
aF0.545002
aF0.948573
aF0.936093
aF0.894096
aF0.909341
aa(lp1153
F0.153801
aF0.198564
aF0.058527
aF0.603045
aF0.06135
aF0.725383
aF0.0
aF0.0
aF0.687767
aF0.860552
aF0.970085
aF0.623048
aF0.957242
aa(lp1154
F0.163904
aF0.486294
aF0.04063
aF0.16629
aF0.218206
aF0.687953
aF0.0
aF0.686656
aF0.537077
aF0.147758
aF0.357531
aF0.120221
aF0.67545
aa(lp1155
F0.127762
aF0.153051
aF0.244162
aF0.234487
aF0.476493
aF0.72919
aF0.0
aF0.375739
aF0.530444
aF0.219183
aF0.923324
aF0.234368
aF0.390746
aa(lp1156
F0.234954
aF0.340806
aF0.108985
aF0.182764
aF0.237015
aF0.798195
aF0.0
aF0.183496
aF0.84313
aF0.630503
aF0.985919
aF0.477142
aF0.806241
aa(lp1157
F0.442474
aF0.03572
aF0.342755
aF0.210273
aF0.066544
aF0.93221
aF0.848841
aF0.0
aF0.051649
aF0.155586
aF0.144395
aF0.060995
aF0.952509
aa(lp1158
F0.062977
aF0.058562
aF0.15669
aF0.192589
aF0.599059
aF0.86147
aF0.0
aF0.0
aF0.644635
aF0.673458
aF0.4915
aF0.469592
aF0.556123
aa(lp1159
F0.282219
aF0.325868
aF0.096335
aF0.06502
aF0.351308
aF0.849088
aF0.0
aF0.0
aF0.058949
aF0.648307
aF0.144598
aF0.090877
aF0.881595
aa(lp1160
F0.093446
aF0.426535
aF0.186211
aF0.238508
aF0.472167
aF0.371825
aF0.0
aF0.712922
aF0.662203
aF0.628907
aF0.890358
aF0.402061
aF0.861506
aa(lp1161
F0.186393
aF0.051511
aF0.272694
aF0.25795
aF0.295059
aF0.22422
aF0.0
aF0.482029
aF0.868259
aF0.357371
aF0.276618
aF0.120342
aF0.372365
aa(lp1162
F0.021411
aF0.450404
aF0.29455
aF0.071112
aF0.280913
aF0.000181
aF0.0
aF0.212071
aF0.906884
aF0.65797
aF0.906683
aF0.982843
aF0.708965
aa(lp1163
F0.086516
aF0.143202
aF0.064754
aF0.091382
aF0.723213
aF0.495826
aF0.0
aF0.95109
aF0.667715
aF0.241219
aF0.154804
aF0.524839
aF0.845259
aa(lp1164
F0.031309
aF0.075064
aF0.11176
aF0.10598
aF0.736294
aF0.028787
aF0.0
aF0.385835
aF0.475964
aF0.487416
aF0.384253
aF0.10191
aF0.620704
aa(lp1165
F0.14959
aF0.155874
aF0.171401
aF0.514424
aF0.287521
aF0.384404
aF0.0
aF0.472553
aF0.722241
aF0.620363
aF0.830977
aF0.757149
aF0.746993
aa(lp1166
F0.105289
aF0.139706
aF0.218297
aF0.503656
aF0.240811
aF0.066924
aF0.402465
aF0.0
aF0.717099
aF0.810767
aF0.359611
aF0.346272
aF0.82664
aa(lp1167
F0.086818
aF0.287731
aF0.010175
aF0.048929
aF0.657666
aF0.0
aF0.73229
aF0.0
aF0.745895
aF0.582923
aF0.952516
aF0.934566
aF0.629525
aa(lp1168
F0.071424
aF0.452468
aF0.419726
aF0.284028
aF0.504591
aF0.404932
aF0.0
aF0.340354
aF0.582629
aF0.729799
aF0.75008
aF0.348169
aF0.865543
aa(lp1169
F0.137264
aF0.433712
aF0.403154
aF0.177022
aF0.492725
aF0.498639
aF0.0
aF0.350903
aF0.63559
aF0.83672
aF0.828979
aF0.564235
aF0.850664
aa(lp1170
F0.164985
aF0.481774
aF0.193437
aF0.031187
aF0.235574
aF0.186171
aF0.0
aF0.123948
aF0.526419
aF0.718137
aF0.75104
aF0.213136
aF0.779191
aa(lp1171
F0.129807
aF0.118627
aF0.156664
aF0.424351
aF0.490124
aF0.543234
aF0.0
aF0.026894
aF0.732734
aF0.872065
aF0.955486
aF0.724368
aF0.888978
aa(lp1172
F0.255054
aF0.533123
aF0.220594
aF0.020619
aF0.145536
aF0.779864
aF0.0
aF0.011457
aF0.680989
aF0.700823
aF0.924347
aF0.565632
aF0.925048
aa(lp1173
F0.117962
aF0.237283
aF0.059686
aF0.223156
aF0.405939
aF0.309119
aF0.752665
aF0.0
aF0.411131
aF0.904693
aF0.289743
aF0.95023
aF0.908217
aa(lp1174
F0.116174
aF0.166072
aF0.148794
aF0.10743
aF0.56898
aF0.000151
aF0.0
aF0.338539
aF0.444047
aF0.927499
aF0.465051
aF0.410016
aF0.990281
aa(lp1175
F0.124825
aF0.132028
aF0.393831
aF0.098873
aF0.309336
aF0.36148
aF0.0
aF0.408642
aF0.992056
aF0.565637
aF0.175506
aF0.531121
aF0.407735
aa(lp1176
F0.156811
aF0.560533
aF0.468007
aF0.186951
aF0.482255
aF0.674019
aF0.0
aF0.244679
aF0.339624
aF0.523066
aF0.318664
aF0.631512
aF0.547105
aa(lp1177
F0.266189
aF0.264321
aF0.163831
aF0.059153
aF0.354901
aF0.455431
aF0.624531
aF0.0
aF0.350426
aF0.856992
aF0.398285
aF0.400917
aF0.907965
aa(lp1178
F0.044481
aF0.08196
aF0.414407
aF0.135378
aF0.382935
aF0.506763
aF0.422119
aF0.0
aF0.924694
aF0.427565
aF0.288607
aF0.660514
aF0.024178
aa(lp1179
F0.164245
aF0.119775
aF0.160561
aF0.313856
aF0.508627
aF0.414167
aF0.0
aF0.403762
aF0.316587
aF0.623898
aF0.615038
aF0.100742
aF0.836537
aa(lp1180
F0.587669
aF0.165794
aF0.518307
aF0.188161
aF0.506053
aF0.622796
aF0.0
aF0.06936
aF0.639576
aF0.844082
aF0.893808
aF0.663161
aF0.907146
aa(lp1181
F0.142887
aF0.39734
aF0.138616
aF0.519852
aF0.486375
aF0.626827
aF0.0
aF0.02588
aF0.753264
aF0.979685
aF0.825215
aF0.725591
aF0.953899
aa(lp1182
F0.155646
aF0.539429
aF0.136945
aF0.189643
aF0.304322
aF0.488306
aF0.0
aF0.260137
aF0.606421
aF0.941715
aF0.984843
aF0.835087
aF0.947099
aa(lp1183
F0.126386
aF0.141205
aF0.152094
aF0.330132
aF0.467563
aF0.606914
aF0.0
aF0.296042
aF0.595812
aF0.917971
aF0.899975
aF0.81549
aF0.836037
aa(lp1184
F0.131971
aF0.07375
aF0.466958
aF0.527993
aF0.47319
aF0.762919
aF0.0
aF0.516025
aF0.674096
aF0.65907
aF0.709393
aF0.487953
aF0.52696
aa(lp1185
F0.105812
aF0.460939
aF0.149905
aF0.222371
aF0.618869
aF0.782166
aF0.0
aF0.690125
aF0.984481
aF0.138037
aF0.32158
aF0.684713
aF0.210161
aa(lp1186
F0.407775
aF0.51268
aF0.104969
aF0.220539
aF0.540692
aF0.572085
aF0.0
aF0.229319
aF0.674666
aF0.899068
aF0.746821
aF0.74002
aF0.892169
aa(lp1187
F0.112641
aF0.200857
aF0.490498
aF0.248629
aF0.518735
aF0.663059
aF0.0
aF0.642376
aF0.823532
aF0.793332
aF0.800243
aF0.570626
aF0.595682
aa(lp1188
F0.074782
aF0.636889
aF0.171437
aF0.037534
aF0.173779
aF0.802429
aF0.0
aF0.827288
aF0.52787
aF0.477774
aF0.949112
aF0.853727
aF0.802905
aa(lp1189
F0.118476
aF0.131018
aF0.107811
aF0.575291
aF0.496714
aF0.834308
aF0.0
aF0.417057
aF0.951239
aF0.55893
aF0.133931
aF0.266847
aF0.507431
aa(lp1190
F0.112608
aF0.153498
aF0.475057
aF0.177208
aF0.555799
aF0.616197
aF0.0
aF0.490206
aF0.988248
aF0.438016
aF0.030126
aF0.40553
aF0.467407
aa(lp1191
F0.142742
aF0.427828
aF0.489563
aF0.116665
aF0.502428
aF0.742123
aF0.0
aF0.794351
aF0.831653
aF0.971583
aF0.454671
aF0.539084
aF0.903745
aa(lp1192
F0.132404
aF0.430576
aF0.476597
aF0.211368
aF0.495745
aF0.332512
aF0.0
aF0.83941
aF0.790919
aF0.30619
aF0.157511
aF0.247645
aF0.524694
aa(lp1193
F0.140226
aF0.490138
aF0.494807
aF0.171568
aF0.474577
aF0.602303
aF0.0
aF0.43216
aF0.926315
aF0.886533
aF0.409703
aF0.507403
aF0.805711
aa(lp1194
F0.11719
aF0.196391
aF0.419216
aF0.181121
aF0.541886
aF0.67736
aF0.0
aF0.781405
aF0.629513
aF0.759839
aF0.714255
aF0.3774
aF0.874884
aa(lp1195
F0.095101
aF0.094947
aF0.528211
aF0.286356
aF0.527249
aF0.283291
aF0.0
aF0.703847
aF0.794997
aF0.240849
aF0.205215
aF0.192632
aF0.329828
aa(lp1196
F0.162348
aF0.491796
aF0.132659
aF0.520613
aF0.484044
aF0.586136
aF0.0
aF0.884672
aF0.803117
aF0.398469
aF0.503761
aF0.327115
aF0.633796
aa(lp1197
F0.142813
aF0.502461
aF0.496442
aF0.212156
aF0.521977
aF0.691698
aF0.0
aF0.725996
aF0.576767
aF0.59386
aF0.554062
aF0.275396
aF0.760653
aa(lp1198
F0.176089
aF0.428456
aF0.429601
aF0.087939
aF0.496116
aF0.515081
aF0.0
aF0.550187
aF0.781982
aF0.977002
aF0.792415
aF0.617929
aF0.953859
aa(lp1199
F0.213154
aF0.481102
aF0.180925
aF0.115283
aF0.459268
aF0.513232
aF0.0
aF0.502902
aF0.802718
aF0.884632
aF0.81047
aF0.666673
aF0.727925
aa(lp1200
F0.111277
aF0.096301
aF0.431171
aF0.444041
aF0.501551
aF0.764716
aF0.083747
aF0.0
aF0.983168
aF0.917145
aF0.046336
aF0.600783
aF0.637677
aa(lp1201
F0.140562
aF0.435911
aF0.665363
aF0.182584
aF0.482766
aF0.62276
aF0.0
aF0.320767
aF0.869424
aF0.852957
aF0.712518
aF0.432824
aF0.630619
aa(lp1202
F0.133719
aF0.470566
aF0.16592
aF0.145169
aF0.50384
aF0.707888
aF0.0
aF0.610021
aF0.800331
aF0.954867
aF0.944906
aF0.801556
aF0.909345
aa(lp1203
F0.612645
aF0.461599
aF0.153176
aF0.093944
aF0.504811
aF0.48496
aF0.0
aF0.220341
aF0.74236
aF0.636104
aF0.805231
aF0.682596
aF0.770484
aa(lp1204
F0.112036
aF0.133296
aF0.141231
aF0.490574
aF0.56424
aF0.583171
aF0.0
aF0.42903
aF0.796612
aF0.214933
aF0.462293
aF0.887109
aF0.289219
aa(lp1205
F0.07584
aF0.114736
aF0.160071
aF0.229266
aF0.553489
aF0.734096
aF0.0
aF0.47554
aF0.836563
aF0.226947
aF0.287443
aF0.505224
aF0.290456
aa(lp1206
F0.571883
aF0.431512
aF0.176218
aF0.088238
aF0.527177
aF0.834086
aF0.0
aF0.35303
aF0.863374
aF0.917376
aF0.927218
aF0.376516
aF0.913736
aa(lp1207
F0.135584
aF0.437737
aF0.56869
aF0.231652
aF0.475654
aF0.70882
aF0.0
aF0.594121
aF0.763149
aF0.624361
aF0.530211
aF0.18669
aF0.630026
aa(lp1208
F0.107772
aF0.105438
aF0.713043
aF0.286362
aF0.526573
aF0.632339
aF0.0
aF0.657497
aF0.755495
aF0.719808
aF0.321121
aF0.487097
aF0.714528
aa(lp1209
F0.162724
aF0.454084
aF0.43654
aF0.129734
aF0.481191
aF0.765945
aF0.0
aF0.65811
aF0.884194
aF0.87332
aF0.846453
aF0.345512
aF0.865142
aa(lp1210
F0.143241
aF0.098282
aF0.148478
aF0.209102
aF0.514754
aF0.260342
aF0.0
aF0.490019
aF0.343613
aF0.608904
aF0.349724
aF0.194081
aF0.843215
aa(lp1211
F0.459902
aF0.449886
aF0.104132
aF0.140483
aF0.524915
aF0.166021
aF0.0
aF0.012733
aF0.534785
aF0.076257
aF0.815797
aF0.683097
aF0.436446
aa(lp1212
F0.582949
aF0.111867
aF0.120063
aF0.496065
aF0.535239
aF0.626805
aF0.0
aF0.256939
aF0.862861
aF0.388395
aF0.472057
aF0.561251
aF0.766128
aa(lp1213
F0.224906
aF0.057773
aF0.04755
aF0.410387
aF0.321691
aF0.0
aF0.6633
aF0.0
aF0.66006
aF0.959332
aF0.236555
aF0.958956
aF0.815987
aa(lp1214
F0.224906
aF0.057773
aF0.04755
aF0.410387
aF0.321691
aF0.0
aF0.6633
aF0.0
aF0.66006
aF0.959332
aF0.236555
aF0.958956
aF0.815987
aa(lp1215
F0.125653
aF0.130372
aF0.178394
aF0.256722
aF0.48922
aF0.459334
aF0.0
aF0.196535
aF0.253242
aF0.816181
aF0.61223
aF0.792767
aF0.636831
aa(lp1216
F0.211143
aF0.507449
aF0.191567
aF0.201141
aF0.217836
aF0.409247
aF0.0
aF0.293041
aF0.300234
aF0.844417
aF0.495468
aF0.225375
aF0.746853
aa(lp1217
F0.464365
aF0.489296
aF0.144833
aF0.205583
aF0.260714
aF0.567228
aF0.0
aF0.394612
aF0.749714
aF0.89098
aF0.898163
aF0.652534
aF0.86761
aa(lp1218
F0.106084
aF0.508205
aF0.160182
aF0.263688
aF0.538864
aF0.194296
aF0.0
aF0.44621
aF0.724941
aF0.967006
aF0.96361
aF0.911766
aF0.947473
aa(lp1219
F0.144008
aF0.187345
aF0.499648
aF0.15127
aF0.498676
aF0.481588
aF0.0
aF0.415466
aF0.698581
aF0.666417
aF0.36986
aF0.306413
aF0.745186
aa(lp1220
F0.135396
aF0.150337
aF0.455543
aF0.452795
aF0.3254
aF0.213543
aF0.0
aF0.145805
aF0.750327
aF0.920649
aF0.918793
aF0.465704
aF0.951185
aa(lp1221
F0.224906
aF0.057773
aF0.04755
aF0.410387
aF0.321691
aF0.0
aF0.6633
aF0.0
aF0.66006
aF0.959332
aF0.236555
aF0.958956
aF0.815987
aa(lp1222
F0.120417
aF0.154099
aF0.117693
aF0.461569
aF0.496631
aF0.231223
aF0.0
aF0.6161
aF0.554505
aF0.58614
aF0.655283
aF0.333995
aF0.777938
aa(lp1223
F0.149396
aF0.442624
aF0.17931
aF0.170908
aF0.533356
aF0.549728
aF0.0
aF0.305264
aF0.710995
aF0.990981
aF0.789474
aF0.700181
aF0.958862
aa(lp1224
F0.103443
aF0.187338
aF0.177799
aF0.416365
aF0.492199
aF0.722675
aF0.0
aF0.222838
aF0.925106
aF0.571929
aF0.889347
aF0.944148
aF0.638037
aa(lp1225
F0.412163
aF0.474471
aF0.432964
aF0.060964
aF0.490218
aF0.712364
aF0.0
aF0.573143
aF0.517569
aF0.78478
aF0.611457
aF0.524596
aF0.753565
aa(lp1226
F0.14215
aF0.451837
aF0.545306
aF0.066747
aF0.538233
aF0.740062
aF0.0
aF0.678062
aF0.801362
aF0.865693
aF0.385532
aF0.468107
aF0.835725
aa(lp1227
F0.448396
aF0.138006
aF0.127914
aF0.454983
aF0.511899
aF0.0
aF0.0
aF0.26486
aF0.446656
aF0.823144
aF0.878039
aF0.727898
aF0.974312
aa(lp1228
F0.252529
aF0.197384
aF0.202684
aF0.118684
aF0.594484
aF0.738956
aF0.0
aF0.398524
aF0.766795
aF0.886013
aF0.884663
aF0.748512
aF0.754869
aa(lp1229
F0.110413
aF0.11922
aF0.198563
aF0.506431
aF0.456623
aF0.627809
aF0.0
aF0.29763
aF0.861892
aF0.723031
aF0.973438
aF0.662034
aF0.699714
aa(lp1230
F0.161828
aF0.438566
aF0.127716
aF0.169668
aF0.51909
aF0.677232
aF0.0
aF0.355759
aF0.543033
aF0.874579
aF0.684838
aF0.589328
aF0.780453
aa(lp1231
F0.224906
aF0.057773
aF0.04755
aF0.410387
aF0.321691
aF0.0
aF0.6633
aF0.0
aF0.66006
aF0.959332
aF0.236555
aF0.958956
aF0.815987
aa(lp1232
F0.17857
aF0.419179
aF0.457862
aF0.141661
aF0.506725
aF0.544009
aF0.0
aF0.58655
aF0.936589
aF0.629171
aF0.718813
aF0.076355
aF0.756121
aa(lp1233
F0.10347
aF0.092227
aF0.487784
aF0.500274
aF0.528499
aF0.374953
aF0.0
aF0.496589
aF0.730073
aF0.421693
aF0.362539
aF0.342605
aF0.471239
aa(lp1234
F0.141798
aF0.432015
aF0.435492
aF0.097043
aF0.531576
aF0.230838
aF0.0
aF0.655501
aF0.653189
aF0.687976
aF0.246469
aF0.617191
aF0.774696
aa(lp1235
F0.120433
aF0.21554
aF0.200896
aF0.205485
aF0.492518
aF0.710067
aF0.0
aF0.370596
aF0.730684
aF0.951213
aF0.891506
aF0.809598
aF0.891661
aa(lp1236
F0.152156
aF0.150374
aF0.481381
aF0.122841
aF0.515048
aF0.262626
aF0.0
aF0.156364
aF0.755866
aF0.550426
aF0.603209
aF0.325455
aF0.879754
aa(lp1237
F0.434441
aF0.429444
aF0.520224
aF0.140893
aF0.529538
aF0.636454
aF0.0
aF0.333808
aF0.76947
aF0.886911
aF0.963849
aF0.546902
aF0.873061
aa(lp1238
F0.162708
aF0.492481
aF0.15918
aF0.108373
aF0.520446
aF0.536503
aF0.0
aF0.247297
aF0.889087
aF0.97139
aF0.872133
aF0.586418
aF0.91295
aa(lp1239
F0.224906
aF0.057773
aF0.04755
aF0.410387
aF0.321691
aF0.0
aF0.6633
aF0.0
aF0.66006
aF0.959332
aF0.236555
aF0.958956
aF0.815987
aa(lp1240
F0.145761
aF0.463749
aF0.224096
aF0.090302
aF0.514339
aF0.260089
aF0.0
aF0.164866
aF0.665771
aF0.512774
aF0.812181
aF0.904326
aF0.766863
aa(lp1241
F0.103443
aF0.187338
aF0.177799
aF0.416365
aF0.492199
aF0.722675
aF0.0
aF0.222838
aF0.925106
aF0.571929
aF0.889347
aF0.944148
aF0.638037
aa(lp1242
F0.181659
aF0.417759
aF0.444503
aF0.135728
aF0.506205
aF0.537305
aF0.0
aF0.580745
aF0.933733
aF0.63399
aF0.730871
aF0.07498
aF0.762173
aa(lp1243
F0.125653
aF0.130372
aF0.178394
aF0.256722
aF0.48922
aF0.459334
aF0.0
aF0.196535
aF0.253242
aF0.816181
aF0.61223
aF0.792767
aF0.636831
aa(lp1244
F0.160715
aF0.501016
aF0.16929
aF0.224867
aF0.493777
aF0.585054
aF0.0
aF0.596736
aF0.623952
aF0.322878
aF0.820784
aF0.273418
aF0.739001
aa(lp1245
F0.119155
aF0.188297
aF0.201222
aF0.217287
aF0.501543
aF0.321717
aF0.0
aF0.315552
aF0.748286
aF0.959123
aF0.918197
aF0.624068
aF0.873615
aa(lp1246
F0.434812
aF0.22809
aF0.178162
aF0.109578
aF0.541224
aF0.435657
aF0.0
aF0.333086
aF0.57451
aF0.940893
aF0.891141
aF0.71346
aF0.895562
aa(lp1247
F0.412695
aF0.445208
aF0.408009
aF0.16198
aF0.479134
aF0.671736
aF0.0
aF0.672487
aF0.751292
aF0.66577
aF0.839444
aF0.550777
aF0.828325
aa(lp1248
F0.120006
aF0.423322
aF0.465388
aF0.12182
aF0.523264
aF0.407543
aF0.143201
aF0.0
aF0.73972
aF0.713416
aF0.732828
aF0.740307
aF0.701095
aa(lp1249
F0.464365
aF0.489296
aF0.144833
aF0.205583
aF0.260714
aF0.567228
aF0.0
aF0.394612
aF0.749714
aF0.89098
aF0.898163
aF0.652534
aF0.86761
aa(lp1250
F0.093191
aF0.098381
aF0.13146
aF0.212756
aF0.558034
aF0.5686
aF0.0
aF0.556075
aF0.639338
aF0.331681
aF0.452512
aF0.346035
aF0.75676
aa(lp1251
F0.124736
aF0.447775
aF0.170939
aF0.146891
aF0.527515
aF0.444351
aF0.0
aF0.449603
aF0.709752
aF0.947008
aF0.967532
aF0.783823
aF0.812783
aa(lp1252
F0.141905
aF0.157759
aF0.135763
aF0.450011
aF0.533625
aF0.752896
aF0.0
aF0.003119
aF0.646152
aF0.7383
aF0.758829
aF0.349693
aF0.892504
aa(lp1253
F0.120961
aF0.437841
aF0.565209
aF0.149571
aF0.523856
aF0.653809
aF0.0
aF0.480062
aF0.896604
aF0.852582
aF0.837509
aF0.604185
aF0.713721
aa(lp1254
F0.224906
aF0.057773
aF0.04755
aF0.410387
aF0.321691
aF0.0
aF0.6633
aF0.0
aF0.66006
aF0.959332
aF0.236555
aF0.958956
aF0.815987
aa(lp1255
F0.445246
aF0.457347
aF0.143741
aF0.154948
aF0.506231
aF0.691665
aF0.0
aF0.466133
aF0.789467
aF0.963468
aF0.8085
aF0.711115
aF0.967018
aa(lp1256
F0.479268
aF0.411078
aF0.1332
aF0.500378
aF0.439559
aF0.363375
aF0.0
aF0.017342
aF0.806961
aF0.771283
aF0.923451
aF0.365489
aF0.904555
aa(lp1257
F0.183032
aF0.134165
aF0.130627
aF0.222765
aF0.545514
aF0.791926
aF0.0
aF0.557693
aF0.509863
aF0.216289
aF0.862705
aF0.832126
aF0.369455
aa(lp1258
F0.078539
aF0.119791
aF0.474009
aF0.23882
aF0.511809
aF0.344487
aF0.0
aF0.433892
aF0.51892
aF0.490235
aF0.341456
aF0.162113
aF0.837931
aa(lp1259
F0.104431
aF0.469928
aF0.548553
aF0.168901
aF0.518534
aF0.594502
aF0.0
aF0.223038
aF0.611504
aF0.931957
aF0.803307
aF0.672964
aF0.826363
aa(lp1260
F0.100754
aF0.187207
aF0.467333
aF0.166029
aF0.529089
aF0.717987
aF0.0
aF0.410487
aF0.709821
aF0.974198
aF0.897166
aF0.73426
aF0.89537
aa.