(lp0
I1
aI1
aI1
aI1
aI1
aI1
aI1
aI1
aI1
aI1
aI1
aI1
aI1
aI1
aI1
aI1
aI1
aI1
aI1
aI1
aI1
aI0
aI0
aI0
aI0
aI0
aI0
aI0
aI0
aI0
aI0
aI0
aI0
aI0
aI0
aI0
aI0
aI0
aI0
aI0
aI0
aI0
aI0
aI0
aI0
aI0
aI0
aI0
aI0
aI0
aI0
aI0
aI0
aI0
aI0
aI0
aI0
aI0
aI0
aI0
aI0
aI0
aI0
aI0
aI0
aI0
aI0
aI0
aI0
aI0
aI0
aI0
aI0
aI0
aI0
aI0
aI0
aI0
aI0
aI0
aI0
aI0
aI0
aI0
aI0
aI0
aI0
aI0
aI0
aI0
aI0
aI0
aI0
aI0
aI0
aI0
aI1
aI1
aI1
aI1
aI1
aI1
aI1
aI1
aI1
aI1
aI1
aI1
aI1
aI1
aI1
aI1
aI1
aI1
aI1
aI1
aI1
aI1
aI1
aI1
aI1
aI1
aI1
aI1
aI1
aI1
aI1
aI1
aI1
aI1
aI1
aI1
aI1
aI1
aI1
aI1
aI1
aI1
aI1
aI1
aI1
aI1
aI1
aI1
aI1
aI1
aI1
aI1
aI1
aI1
aI1
aI1
aI1
aI1
aI1
aI1
aI1
aI1
aI1
aI1
aI1
aI1
aI1
aI1
aI1
aI1
aI1
aI1
aI1
aI1
aI1
aI1
aI1
aI1
aI1
aI1
aI1
aI1
aI1
aI1
aI1
aI1
aI1
aI1
aI1
aI1
aI1
aI1
aI1
aI1
aI1
aI1
aI1
aI1
aI1
aI1
aI1
aI1
aI1
aI1
aI1
aI1
aI1
aI1
aI1
aI1
aI1
aI1
aI1
aI1
aI1
aI1
aI1
aI1
aI1
aI1
aI1
aI1
aI1
aI1
aI1
aI1
aI1
aI1
aI1
aI1
aI1
aI1
aI1
aI1
aI1
aI1
aI1
aI1
aI1
aI1
aI1
aI1
aI1
aI1
aI1
aI1
aI1
aI1
aI1
aI1
aI1
aI1
aI1
aI1
aI1
aI1
aI1
aI1
aI1
aI1
aI0
aI0
aI0
aI0
aI0
aI0
aI0
aI0
aI0
aI0
aI0
aI0
aI0
aI0
aI0
aI0
aI0
aI0
aI0
aI0
aI0
aI0
aI0
aI0
aI0
aI0
aI0
aI0
aI0
aI0
aI0
aI0
aI0
aI0
aI0
aI0
aI0
aI0
aI0
aI0
aI0
aI0
aI0
aI0
aI0
aI0
aI0
aI0
aI0
aI0
aI0
aI2
aI2
aI2
aI2
aI2
aI2
aI2
aI2
aI2
aI2
aI2
aI2
aI2
aI2
aI2
aI2
aI2
aI2
aI2
aI2
aI2
aI2
aI2
aI2
aI2
aI2
aI2
aI2
aI2
aI2
aI2
aI2
aI2
aI2
aI2
aI2
aI2
aI2
aI2
aI2
aI2
aI2
aI2
aI2
aI2
aI2
aI2
aI2
aI2
aI2
aI2
aI2
aI2
aI2
aI2
aI2
aI2
aI2
aI2
aI2
aI2
aI2
aI2
aI2
aI2
aI2
aI2
aI2
aI2
aI2
aI2
aI2
aI2
aI2
aI2
aI2
aI2
aI2
aI2
aI2
aI2
aI2
aI2
aI2
aI2
aI2
aI2
aI2
aI2
aI2
aI2
aI2
aI2
aI2
aI2
aI2
aI2
aI2
aI2
aI2
aI2
aI2
aI2
aI2
aI2
aI2
aI2
aI2
aI2
aI2
aI2
aI2
aI2
aI2
aI2
aI2
aI2
aI2
aI2
aI2
aI2
aI2
aI2
aI2
aI2
aI2
aI2
aI2
aI2
aI2
aI2
aI2
aI2
aI2
aI2
aI2
aI2
aI2
aI2
aI2
aI2
aI2
aI2
aI2
aI2
aI2
aI2
aI2
aI2
aI2
aI2
aI2
aI2
aI2
aI2
aI2
aI2
aI2
aI2
aI2
aI2
aI2
aI2
aI2
aI2
aI2
aI2
aI2
aI2
aI2
aI2
aI2
aI2
aI2
aI2
aI2
aI2
aI2
aI2
aI2
aI2
aI2
aI2
aI2
aI2
aI2
aI2
aI2
aI2
aI2
aI2
aI2
aI2
aI2
aI2
aI2
aI2
aI2
aI2
aI2
aI2
aI2
aI2
aI2
aI2
aI2
aI2
aI2
aI2
aI2
aI2
aI2
aI2
aI2
aI2
aI2
aI2
aI2
aI2
aI2
aI2
aI2
aI2
aI2
aI2
aI2
aI2
aI2
aI2
aI2
aI2
aI2
aI2
aI2
aI2
aI2
aI2
aI2
aI2
aI2
aI2
aI2
aI2
aI2
aI2
aI2
aI2
aI2
aI2
aI2
aI2
aI2
aI2
aI2
aI2
aI2
aI2
aI2
aI2
aI2
aI2
aI2
aI2
aI2
aI2
aI2
aI2
aI2
aI2
aI2
aI2
aI2
aI2
aI2
aI2
aI2
aI2
aI2
aI2
aI2
aI2
aI2
aI2
aI2
aI2
aI2
aI2
aI2
aI2
aI2
aI2
aI2
aI2
aI2
aI2
aI2
aI2
aI2
aI2
aI2
aI2
aI2
aI2
aI2
aI2
aI2
aI2
aI2
aI2
aI2
aI2
aI2
aI2
aI2
aI2
aI2
aI2
aI2
aI2
aI2
aI2
aI2
aI2
aI2
aI2
aI2
aI2
aI2
aI2
aI2
aI2
aI2
aI2
aI2
aI2
aI2
aI2
aI2
aI2
aI2
aI2
aI2
aI2
aI2
aI2
aI2
aI2
aI2
aI2
aI2
aI2
aI2
aI2
aI2
aI1
aI1
aI1
aI1
aI1
aI1
aI1
aI1
aI1
aI1
aI1
aI1
aI1
aI1
aI1
aI1
aI1
aI1
aI1
aI1
aI1
aI1
aI1
aI1
aI1
aI1
aI1
aI1
aI1
aI1
aI1
aI1
aI1
aI1
aI1
aI1
aI1
aI1
aI1
aI1
aI1
aI1
aI1
aI1
aI1
aI1
aI1
aI1
aI1
aI1
aI1
aI1
aI1
aI1
aI1
aI1
aI1
aI1
aI1
aI1
aI1
aI1
aI1
aI1
aI1
aI1
aI1
aI1
aI1
aI1
aI1
aI1
aI1
aI1
aI1
aI1
aI1
aI1
aI1
aI1
aI1
aI2
aI2
aI2
aI2
aI2
aI2
aI2
aI2
aI2
aI2
aI2
aI2
aI2
aI2
aI2
aI2
aI2
aI2
aI2
aI2
aI2
aI2
aI2
aI1
aI1
aI1
aI1
aI1
aI1
aI1
aI1
aI1
aI1
aI2
aI2
aI2
aI2
aI2
aI2
aI2
aI2
aI2
aI2
aI2
aI2
aI2
aI2
aI2
aI2
aI2
aI2
aI2
aI2
aI1
aI1
aI1
aI1
aI1
aI1
aI1
aI1
aI1
aI1
aI1
aI1
aI1
aI1
aI1
aI1
aI1
aI1
aI1
aI1
aI1
aI1
aI1
aI1
aI1
aI1
aI1
aI1
aI1
aI1
aI0
aI0
aI0
aI0
aI0
aI0
aI0
aI0
aI0
aI0
aI0
aI0
aI0
aI0
aI0
aI0
aI0
aI0
aI0
aI0
aI0
aI0
aI0
aI0
aI0
aI0
aI0
aI0
aI0
aI0
aI0
aI0
aI0
aI0
aI0
aI0
aI0
aI0
aI0
aI0
aI0
aI0
aI0
aI0
aI0
aI0
aI0
aI0
aI0
aI0
aI0
aI0
aI0
aI0
aI0
aI0
aI0
aI0
aI0
aI0
aI0
aI0
aI0
aI0
aI0
aI0
aI0
aI0
aI0
aI0
aI0
aI0
aI0
aI0
aI0
aI0
aI0
aI0
aI0
aI0
aI0
aI0
aI0
aI0
aI0
aI0
aI0
aI0
aI0
aI0
aI0
aI0
aI0
aI0
aI0
aI0
aI0
aI0
aI0
aI0
aI0
aI0
aI0
aI0
aI0
aI0
aI0
aI0
aI0
aI0
aI0
aI0
aI0
aI0
aI0
aI0
aI0
aI0
aI0
aI0
aI0
aI0
aI0
aI0
aI0
aI0
aI0
aI0
aI0
aI0
aI0
aI0
aI0
aI0
aI0
aI0
aI0
aI0
aI0
aI0
aI0
aI0
aI0
aI0
aI0
aI0
aI0
aI0
aI0
aI0
aI0
aI0
aI0
aI0
aI0
aI0
aI0
aI0
aI0
aI0
aI0
aI0
aI0
aI0
aI0
aI0
aI0
aI0
aI0
aI0
aI0
aI0
aI0
aI0
aI0
aI0
aI0
aI0
aI0
aI0
aI0
aI0
aI0
aI0
aI0
aI0
aI0
aI0
aI0
aI0
aI0
aI0
aI0
aI0
aI0
aI0
aI0
aI0
aI0
aI0
aI0
aI0
aI0
aI0
aI0
aI0
aI0
aI0
aI0
aI0
aI0
aI0
aI0
aI0
aI0
aI0
aI0
aI0
aI0
aI0
aI0
aI0
aI0
aI0
aI0
aI0
aI0
aI0
aI0
aI0
aI0
aI0
aI0
aI0
aI0
aI0
aI0
aI0
aI0
aI0
aI0
aI0
aI0
aI0
aI0
aI0
aI0
aI0
aI0
aI0
aI0
aI0
aI0
aI0
aI0
aI0
aI0
aI0
aI0
aI0
aI0
aI0
aI0
aI0
aI0
aI0
aI0
aI0
aI0
aI0
aI0
aI0
aI0
aI0
aI0
aI0
aI0
aI0
aI0
aI0
aI0
aI0
aI0
aI0
aI0
aI0
aI0
aI0
aI0
aI0
aI0
aI0
aI0
aI0
aI0
aI0
aI0
aI0
aI0
aI0
aI0
aI0
aI0
aI0
aI0
aI0
aI0
aI0
aI0
aI0
aI0
aI0
aI0
aI0
aI0
aI0
aI0
aI0
aI0
aI0
aI0
aI0
aI0
aI0
aI0
aI0
aI0
aI0
aI0
aI0
aI0
aI0
aI0
aI0
aI0
aI0
aI0
aI0
aI0
aI0
aI0
aI0
aI0
aI0
aI0
aI0
aI0
aI0
aI0
aI0
aI0
aI0
aI0
aI0
aI0
aI0
aI2
aI1
aI1
aI1
aI1
aI1
aI1
aI1
aI1
aI1
aI1
aI1
aI1
aI1
aI1
aI1
aI1
aI1
aI1
aI1
aI1
aI1
aI1
aI1
aI1
aI1
aI1
aI1
aI1
aI1
aI1
aI1
aI1
aI1
aI1
aI1
aI1
aI1
aI1
aI1
aI1
aI1
aI1
aI1
aI1
aI1
aI1
aI1
aI1
aI1
aI1
aI1
aI1
aI1
aI1
aI1
aI1
aI1
aI1
aI1
aI1
aI1
aI1
aI1
aI1
aI1
aI1
aI1
aI1
aI1
aI1
aI1
aI1
aI1
aI1
aI1
aI1
aI1
aI1
a.